(dp0
(S'|What is the wingspa'
p1
S'|Two eggs laid by ca'
p2
tp3
(cnumpy.core.multiarray
scalar
p4
(cnumpy
dtype
p5
(S'f8'
p6
I0
I1
tp7
Rp8
(I3
S'<'
p9
NNNI-1
I-1
I0
tp10
bS'\x00\x00\x00\x00\x00\x003@'
p11
tp12
Rp13
S'at is |the| ||||wing|span of a| '
p14
S"ate's other breeding station at "
p15
(I2
I338
tp16
(I26
I370
tp17
tp18
s(S'|What was the name o'
p19
S'|Mission specialist '
p20
tp21
(g4
(g8
S'\x00\x00\x00\x00\x00\x80B@'
p22
tp23
Rp24
S'hat was t||he|| |||name of the |fir||||s||||t||||| Russian a|||||s|tr|onaut to |||do|| a spacewalk'
p25
S'h|t |is to help operate||| the Astro observatory , Hoffman also is train|ed to perform a spacewalk'
p26
(I1
I495
tp27
(I66
I587
tp28
tp29
s(S'|What was the name o'
p30
S'|Language : <f p= "1'
p31
tp32
(g4
(g8
S'\x00\x00\x00\x00\x00\x00G@'
p33
tp34
Rp35
S' wa||s the |name of| the first |||Russi||||||an||||||| astronaut| to do a '
p36
S' marks the en||d of  the first ever flight when U .S . astronauts |and| a '
p37
(I4
I302
tp38
(I57
I372
tp39
tp40
s(S'|What is the wingspa'
p41
S'|<p> Mandan , the se'
p42
tp43
(g4
(g8
S'\x00\x00\x00\x00\x00\x006@'
p44
tp45
Rp46
S' is the |||wingspan of '
p47
S' is the sibling|||| of '
p48
(I4
I2819
tp49
(I24
I2838
tp50
tp51
s(S'|How old is the sun?'
p52
S"|While Sun's new wor"
p53
tp54
(g4
(g8
S'\x00\x00\x00\x00\x00\x00.@'
p55
tp56
Rp57
S' |o|ld is|||| the '
p58
S' could |stall the '
p59
(I3
I3038
tp60
(I15
I3055
tp61
tp62
s(S'|Where did bocci ori'
p63
S'|<p> The massive par'
p64
tp65
(g4
(g8
S'\x00\x00\x00\x00\x00\x00(@'
p66
tp67
Rp68
S'ere did bocci o'
p69
S'ery big so|ci|o'
p70
(I2
I304
tp71
(I17
I317
tp72
tp73
s(S'|What was the name o'
p74
S'|Space shuttle Atlan'
p75
tp76
(g4
(g8
S'\x00\x00\x00\x00\x00\x80C@'
p77
tp78
Rp79
S'hat wa|s|| the ||||||name|| of the f|irst |Russian '
p80
S'hat caused the postponement of the flight Thursday '
p81
(I1
I780
tp82
(I39
I831
tp83
tp84
s(S'|Where is Belize loc'
p85
S'|VISITORS arriving a'
p86
tp87
(g4
(g8
S'\x00\x00\x00\x00\x00\x007@'
p88
tp89
Rp90
S'he|r||e ||i|s Belize loca'
p91
S'he role which Belize ||ca'
p92
(I1
I2893
tp93
(I20
I2916
tp94
tp95
s(S'|Where is Belize loc'
p96
S'|WHILE civil war rav'
p97
tp98
(g4
(g8
S'\x00\x00\x00\x00\x00\x005@'
p99
tp100
Rp101
S'ere|||| is Belize '
p102
S'erendum in Belize '
p103
(I2
I2053
tp104
(I16
I2071
tp105
tp106
s(S'|What is the wingspa'
p107
S'|<p> Wildlife offici'
p108
tp109
(g4
(g8
S'\x00\x00\x00\x00\x00\x00>@'
p110
tp111
Rp112
S't |is the wings||pa|n of a condor'
p113
S't was the fi|rst laid by a condor'
p114
(I3
I193
tp115
(I32
I225
tp116
tp117
s(S'|albacore'
p118
S'|bacon'
p119
tp120
(g4
(g8
S'\x00\x00\x00\x00\x00\x00 @'
p121
tp122
Rp123
S'baco'
p124
S'baco'
p125
(I2
I0
tp126
(I6
I4
tp127
tp128
s(S'|albacore'
p129
S'|baecon'
p130
tp131
(g4
(g8
S'\x00\x00\x00\x00\x00\x00\x1c@'
p132
tp133
Rp134
S'ba|co'
p135
S'baeco'
p136
(I2
I0
tp137
(I6
I5
tp138
tp139
s(S'|How old is the sun?'
p140
S'|At the same time , '
p141
tp142
(g4
(g8
S'\x00\x00\x00\x00\x00\x001@'
p143
tp144
Rp145
S' o|ld is the '
p146
S' only in the '
p147
(I3
I5940
tp148
(I15
I5953
tp149
tp150
s(S'|Where did bocci ori'
p151
S'|Italian voters deal'
p152
tp153
(g4
(g8
S'\x00\x00\x00\x00\x00\x00,@'
p154
tp155
Rp156
S'e did bocci |originate'
p157
S'e led |o||r do||minate'
p158
(I4
I836
tp159
(I25
I853
tp160
tp161
s(S'|Where is Belize loc'
p162
S"|GUATEMALA'S Congres"
p163
tp164
(g4
(g8
S'\x00\x00\x00\x00\x00\x005@'
p165
tp166
Rp167
S'here is Belize '
p168
S'held in Belize '
p169
(I1
I566
tp170
(I16
I581
tp171
tp172
s(S'|What is the wingspa'
p173
S'|Stress is believed '
p174
tp175
(g4
(g8
S'\x00\x00\x00\x00\x00\x007@'
p176
tp177
Rp178
S' |the| |wingsp|an||| |of a| condor'
p179
S' other tran|splanted Andean condor'
p180
(I7
I191
tp181
(I32
I224
tp182
tp183
s(S'|What was the name o'
p184
S'| "I hope you don\'t '
p185
tp186
(g4
(g8
S'\x00\x00\x00\x00\x00\x00;@'
p187
tp188
Rp189
S'of the first Russi|an as'
p190
S'ok the first American |s'
p191
(I18
I1239
tp192
(I41
I1262
tp193
tp194
s(S'|What is the wingspa'
p195
S'|The first egg produ'
p196
tp197
(g4
(g8
S'\x00\x00\x00\x00\x00\x00=@'
p198
tp199
Rp200
S' th||e|| wingspan of a'
p201
S' |have a wingspan of a'
p202
(I7
I1269
tp203
(I25
I1290
tp204
tp205
s(S'|Where is Belize loc'
p206
S'|Prime Minister Manu'
p207
tp208
(g4
(g8
S'\x00\x00\x00\x00\x00\x003@'
p209
tp210
Rp211
S'ere is Belize '
p212
S'ery to Belize '
p213
(I2
I624
tp214
(I16
I638
tp215
tp216
s(S'|How old is the sun?'
p217
S'|Nevertheless ,  "Th'
p218
tp219
(g4
(g8
S'\x00\x00\x00\x00\x00\x00*@'
p220
tp221
Rp222
S' is the '
p223
S' in the '
p224
(I7
I624
tp225
(I15
I632
tp226
tp227
s(S'|What is the wingspa'
p228
S'|Wildlife officials '
p229
tp230
(g4
(g8
S'\x00\x00\x00\x00\x00\x009@'
p231
tp232
Rp233
S' |i||s ||the wingspan| '
p234
S' birds with| wingspans '
p235
(I4
I698
tp236
(I21
I720
tp237
tp238
s(S'|What is the wingspa'
p239
S'|Four young Andean c'
p240
tp241
(g4
(g8
S'\x00\x00\x00\x00\x00\x004@'
p242
tp243
Rp244
S' the wingspan of a condor'
p245
S' the |An|dean||||| condor'
p246
(I7
I287
tp247
(I32
I305
tp248
tp249
s(S'|Where did bocci ori'
p250
S'|Language : <f p= "1'
p251
tp252
(g4
(g8
S'\x00\x00\x00\x00\x00\x00,@'
p253
tp254
Rp255
S'here did bo|c'
p256
S'here |is no c'
p257
(I1
I3313
tp258
(I13
I3325
tp259
tp260
s(S'|Where did bocci ori'
p261
S'|BFN     [Text] The '
p262
tp263
(g4
(g8
S'\x00\x00\x00\x00\x00\x00*@'
p264
tp265
Rp266
S'here di|d b'
p267
S'here will b'
p268
(I1
I485
tp269
(I11
I496
tp270
tp271
s(S'|What was the name o'
p272
S'|Two cosmonauts left'
p273
tp274
(g4
(g8
S'\x00\x00\x00\x00\x00\x00:@'
p275
tp276
Rp277
S't was the name| o|||f the first Russia||n|| astrona|ut|| t||||||||||o do a||| space|walk'
p278
S"t |to the telescope , the |Tass news agency |said at the time .    In today's space walk"
p279
(I3
I698
tp280
(I66
I783
tp281
tp282
s(S'|Where is Belize loc'
p283
S'|MR George Price , p'
p284
tp285
(g4
(g8
S'\x00\x00\x00\x00\x00\x003@'
p286
tp287
Rp288
S'ere is Belize '
p289
S'er| of Belize '
p290
(I2
I30
tp291
(I16
I43
tp292
tp293
s(S'|What is the wingspa'
p294
S'|A tiny , pale aqua '
p295
tp296
(g4
(g8
S'\x00\x00\x00\x00\x00\x00:@'
p297
tp298
Rp299
S' is the win|gspa|n o|f a condor'
p300
S' is the |only California condor'
p301
(I4
I1162
tp302
(I32
I1192
tp303
tp304
s(S"|Where's Montenegro?"
p305
S'|BFN     [Text] Tira'
p306
tp307
(g4
(g8
S'\x00\x00\x00\x00\x00\x009@'
p308
tp309
Rp310
S"er|e's Montenegro"
p311
S'ercept Montenegro'
p312
(I2
I259
tp313
(I18
I276
tp314
tp315
s(S'|Where did bocci ori'
p316
S'|THE HISTORY of La B'
p317
tp318
(g4
(g8
S'\x00\x00\x00\x00\x00\x00*@'
p319
tp320
Rp321
S'ere did boc'
p322
S'ere had bec'
p323
(I2
I1288
tp324
(I13
I1299
tp325
tp326
s(S'|Where did bocci ori'
p327
S'|On the other , ther'
p328
tp329
(g4
(g8
S'\x00\x00\x00\x00\x00\x00(@'
p330
tp331
Rp332
S'Where '
p333
S'Where '
p334
(I0
I3704
tp335
(I6
I3710
tp336
tp337
s(S'|Where is Belize loc'
p338
S'|BFN     [Text] Yest'
p339
tp340
(g4
(g8
S'\x00\x00\x00\x00\x00\x003@'
p341
tp342
Rp343
S'ere |is Belize lo'
p344
S'er| the Belize Co'
p345
(I2
I672
tp346
(I18
I688
tp347
tp348
s(S'|What is the wingspa'
p349
S"|It's a big bird . A"
p350
tp351
(g4
(g8
S'\x00\x00\x00\x00\x00\x009@'
p352
tp353
Rp354
S'hat| is the wingspan of a '
p355
S'h|ts on the wings||| |, a '
p356
(I1
I216
tp357
(I26
I237
tp358
tp359
s(S'|What was the name o'
p360
S'|A still-unexplained'
p361
tp362
(g4
(g8
S'\x00\x00\x00\x00\x00\x00>@'
p363
tp364
Rp365
S' the first Russian as'
p366
S' the first mission |s'
p367
(I20
I3407
tp368
(I41
I3427
tp369
tp370
s(S"|Where's Montenegro?"
p371
S'|BFN     [Excerpts] '
p372
tp373
(g4
(g8
S'\x00\x00\x00\x00\x00\x008@'
p374
tp375
Rp376
S"ere's|| Montenegro"
p377
S'er||s . Montenegro'
p378
(I2
I2038
tp379
(I18
I2054
tp380
tp381
s(S'|Where is Belize loc'
p382
S'|BFN   <f p= "106 ">'
p383
tp384
(g4
(g8
S'\x00\x00\x00\x00\x00\x002@'
p385
tp386
Rp387
S' Belize loca'
p388
S' Belize toda'
p389
(I8
I93
tp390
(I20
I105
tp391
tp392
s(S'|How old is the sun?'
p393
S'|The other new subsi'
p394
tp395
(g4
(g8
S'\x00\x00\x00\x00\x00\x00,@'
p396
tp397
Rp398
S'ld is the sun'
p399
S'll be the |un'
p400
(I5
I266
tp401
(I18
I278
tp402
tp403
s(S'|What is the wingspa'
p404
S'|A hungry bundle of '
p405
tp406
(g4
(g8
S'\x00\x00\x00\x00\x00\x00=@'
p407
tp408
Rp409
S'hat is the wingspan of |a co'
p410
S'ha|||s ||a wingspan of up to'
p411
(I1
I3113
tp412
(I28
I3136
tp413
tp414
s(S'|Where is Belize loc'
p415
S'|PORING OVER the pag'
p416
tp417
(g4
(g8
S'\x00\x00\x00\x00\x00\x005@'
p418
tp419
Rp420
S'r|e| is Belize '
p421
S'rced in Belize '
p422
(I3
I2818
tp423
(I16
I2833
tp424
tp425
s(S'|Where did bocci ori'
p426
S'|If the New York Cit'
p427
tp428
(g4
(g8
S'\x00\x00\x00\x00\x00\x007@'
p429
tp430
Rp431
S'here |did bocci originate'
p432
S'her| hand ||||, originate'
p433
(I1
I1165
tp434
(I25
I1185
tp435
tp436
s(S'|Where is Belize loc'
p437
S'|BFN     [Text] Pres'
p438
tp439
(g4
(g8
S'\x00\x00\x00\x00\x00\x002@'
p440
tp441
Rp442
S' is Belize||| located'
p443
S' in Pe||ten , located'
p444
(I5
I1417
tp445
(I23
I1436
tp446
tp447
s(S'|What was the name o'
p448
S'|Chunks of shrapnel '
p449
tp450
(g4
(g8
S'\x00\x00\x00\x00\x00\x80A@'
p451
tp452
Rp453
S't was the |name of the |first Rus|sian astronaut| to do |a'
p454
S't was ||a flake of the pai|nt |used on |||rockets |and| pa'
p455
(I3
I3121
tp456
(I56
I3170
tp457
tp458
s(S'|Where is Belize loc'
p459
S'|The British governm'
p460
tp461
(g4
(g8
S'\x00\x00\x00\x00\x00\x007@'
p462
tp463
Rp464
S'e| is Belize lo|c||ate'
p465
S'ed in Belize to counte'
p466
(I4
I526
tp467
(I22
I548
tp468
tp469
s(S'|What was the name o'
p470
S'|Up to 10 spacewalks'
p471
tp472
(g4
(g8
S'\x00\x00\x00\x00\x00\x80E@'
p473
tp474
Rp475
S'hat ||||was the name of |the first Russian astronaut| to| do a'
p476
S'hat much of the time of at|| least ||||two astronauts |on bo|a'
p477
(I1
I1305
tp478
(I56
I1359
tp479
tp480
s(S'|How old is the sun?'
p481
S'|Matsushita Electric'
p482
tp483
(g4
(g8
S'\x00\x00\x00\x00\x00\x00.@'
p484
tp485
Rp486
S'ow |old is the '
p487
S'on sale in the '
p488
(I1
I1582
tp489
(I15
I1597
tp490
tp491
s(S"|Where's Montenegro?"
p492
S'|CSO       [Editoria'
p493
tp494
(g4
(g8
S'\x00\x00\x00\x00\x00\x006@'
p495
tp496
Rp497
S' Montenegro'
p498
S' Montenegro'
p499
(I7
I257
tp500
(I18
I268
tp501
tp502
s(S'|Where is Belize loc'
p503
S'|CONSERVATION and to'
p504
tp505
(g4
(g8
S'\x00\x00\x00\x00\x00\x003@'
p506
tp507
Rp508
S' is Belize '
p509
S' in Belize '
p510
(I5
I54
tp511
(I16
I65
tp512
tp513
s(S'|How old is the sun?'
p514
S'|The Ventura agreeme'
p515
tp516
(g4
(g8
S'\x00\x00\x00\x00\x00\x00(@'
p517
tp518
Rp519
S'ow ||old is the |s'
p520
S'o| broad|en the us'
p521
(I1
I59
tp522
(I16
I75
tp523
tp524
s(S'|Where is Belize loc'
p525
S'|THE opposition in B'
p526
tp527
(g4
(g8
S'\x00\x00\x00\x00\x00\x006@'
p528
tp529
Rp530
S'ere is Belize '
p531
S'ers in Belize '
p532
(I2
I647
tp533
(I16
I661
tp534
tp535
s(S'|What is the wingspa'
p536
S'|<p> An egg laid Sun'
p537
tp538
(g4
(g8
S'\x00\x00\x00\x00\x00\x00;@'
p539
tp540
Rp541
S'at| is the wingspa||n|| |of a condor'
p542
S'ate in the ||||season , so|me condor'
p543
(I2
I1446
tp544
(I32
I1477
tp545
tp546
s(S'|Where did bocci ori'
p547
S"|<p> There's a littl"
p548
tp549
(g4
(g8
S'\x00\x00\x00\x00\x00\x00*@'
p550
tp551
Rp552
S'e| |did bocci '
p553
S'el hair bocca '
p554
(I4
I1045
tp555
(I16
I1059
tp556
tp557
s(S'|Where is Belize loc'
p558
S'|Belize says neighbo'
p559
tp560
(g4
(g8
S'\x00\x00\x00\x00\x00\x005@'
p561
tp562
Rp563
S'e| is Belize lo'
p564
S'ed in Belize to'
p565
(I4
I606
tp566
(I18
I621
tp567
tp568
s(S'|What is the wingspa'
p569
S'|Removing the egg fr'
p570
tp571
(g4
(g8
S'\x00\x00\x00\x00\x00\x00:@'
p572
tp573
Rp574
S' the wingspan of a condor'
p575
S' the wi||||ld |, a condor'
p576
(I7
I118
tp577
(I32
I138
tp578
tp579
s(S'|Where is Belize loc'
p580
S"|BELIZE'S new govern"
p581
tp582
(g4
(g8
S'\x00\x00\x00\x00\x00\x007@'
p583
tp584
Rp585
S'ere| is Belize |locate'
p586
S'ered by Belize , Guate'
p587
(I2
I1276
tp588
(I22
I1298
tp589
tp590
s(S'|How old is the sun?'
p591
S'|The upstart company'
p592
tp593
(g4
(g8
S'\x00\x00\x00\x00\x00\x000@'
p594
tp595
Rp596
S' |old |i||s the s'
p597
S' four times the s'
p598
(I3
I2659
tp599
(I16
I2676
tp600
tp601
s(S'|How old is the sun?'
p602
S'|COMPUTER workstatio'
p603
tp604
(g4
(g8
S'\x00\x00\x00\x00\x00\x000@'
p605
tp606
Rp607
S' is the '
p608
S' is the '
p609
(I7
I1957
tp610
(I15
I1965
tp611
tp612
s(S'|Where did bocci ori'
p613
S'|Brant unveils tonig'
p614
tp615
(g4
(g8
S'\x00\x00\x00\x00\x00\x00,@'
p616
tp617
Rp618
S' bocci '
p619
S' bocci '
p620
(I9
I3574
tp621
(I16
I3581
tp622
tp623
s(S'|What was the name o'
p624
S'|The Gamma Ray Obser'
p625
tp626
(g4
(g8
S'\x00\x00\x00\x00\x00\x00<@'
p627
tp628
Rp629
S't wa|s the |name of the first|| Russia||n astronaut| '
p630
S't have t|o leave||| the shuttle ||today , astronauts '
p631
(I3
I835
tp632
(I49
I882
tp633
tp634
s(S'|Where did bocci ori'
p635
S'|<p> At the unpreced'
p636
tp637
(g4
(g8
S'\x00\x00\x00\x00\x00\x00.@'
p638
tp639
Rp640
S'd bocci orig||inat'
p641
S'd local or|ganizat'
p642
(I8
I8374
tp643
(I24
I8391
tp644
tp645
s(S'|What is the wingspa'
p646
S'|One zoo-hatched And'
p647
tp648
(g4
(g8
S'\x00\x00\x00\x00\x00\x004@'
p649
tp650
Rp651
S' the wingspan of a condor'
p652
S' the |An|dean||||| condor'
p653
(I7
I1188
tp654
(I32
I1206
tp655
tp656
s(S'|What was the name o'
p657
S'|The solar panels on'
p658
tp659
(g4
(g8
S'\x00\x00\x00\x00\x00\x80A@'
p660
tp661
Rp662
S' astronau||||t||||||||| to ||do a spacewalk'
p663
S' astronauts standing by to take a spacewalk'
p664
(I38
I265
tp665
(I66
I308
tp666
tp667
s(S'|Where did bocci ori'
p668
S'|<p> As result of in'
p669
tp670
(g4
(g8
S'\x00\x00\x00\x00\x00\x000@'
p671
tp672
Rp673
S' origina'
p674
S' origina'
p675
(I15
I75
tp676
(I23
I83
tp677
tp678
s(S'|What is the wingspa'
p679
S'|Four Andean condors'
p680
tp681
(g4
(g8
S'\x00\x00\x00\x00\x00\x009@'
p682
tp683
Rp684
S'at|| |is th|e wingspan '
p685
S'ater wi||th a wingspan '
p686
(I2
I512
tp687
(I21
I533
tp688
tp689
s(S'|What is the wingspa'
p690
S'|One of four Andean '
p691
tp692
(g4
(g8
S'\x00\x00\x00\x00\x00\x003@'
p693
tp694
Rp695
S'at||| is the wingspa|n o|f a condor'
p696
S'ative to the |||||California condor'
p697
(I2
I788
tp698
(I32
I818
tp699
tp700
s(S'|Where is Belize loc'
p701
S'|The first of a stri'
p702
tp703
(g4
(g8
S'\x00\x00\x00\x00\x00\x003@'
p704
tp705
Rp706
S'ere is Belize '
p707
S'er| of Belize '
p708
(I2
I720
tp709
(I16
I733
tp710
tp711
s(S'|Where did bocci ori'
p712
S'|They do these thing'
p713
tp714
(g4
(g8
S'\x00\x00\x00\x00\x00\x00.@'
p715
tp716
Rp717
S'e did bocc||i o'
p718
S'endid |occasi|o'
p719
(I4
I607
tp720
(I17
I620
tp721
tp722
s(S'|What was the name o'
p723
S'|Two cosmonauts whos'
p724
tp725
(g4
(g8
S'\x00\x00\x00\x00\x00\x00B@'
p726
tp727
Rp728
S'hat was the name| of the first Russia|n|| |astronaut t'
p729
S'hat was trumpeted as the first ||||manned mission in t'
p730
(I1
I956
tp731
(I50
I1006
tp732
tp733
s(S'|What was the name o'
p734
S"|In ``hush-hush'' su"
p735
tp736
(g4
(g8
S'\x00\x00\x00\x00\x00\x00<@'
p737
tp738
Rp739
S' astronaut| ||to ||do a spacewal'
p740
S' astronauts will test a spec|ial'
p741
(I38
I3641
tp742
(I65
I3672
tp743
tp744
s(S'|What was the name o'
p745
S'|An internal NASA st'
p746
tp747
(g4
(g8
S'\x00\x00\x00\x00\x00\x00<@'
p748
tp749
Rp750
S' the name of the first Russian |astronau|t to d'
p751
S' th|||a|t if the si||t||uation cont|in|ues to d'
p752
(I8
I1432
tp753
(I53
I1469
tp754
tp755
s(S'|What was the name o'
p756
S"|Discovery's astrona"
p757
tp758
(g4
(g8
S'\x00\x00\x00\x00\x00\x00G@'
p759
tp760
Rp761
S' the ||name |of the fir|st Russian astronaut |to|||| ||||do a spacewalk'
p762
S' the repair was |performed ||by an astronaut who was taking a spacewalk'
p763
(I8
I1228
tp764
(I66
I1296
tp765
tp766
s(S'|How old is the sun?'
p767
S'|Sun is fortunate Mr'
p768
tp769
(g4
(g8
S'\x00\x00\x00\x00\x00\x003@'
p770
tp771
Rp772
S' |old |is the '
p773
S' told him the '
p774
(I3
I4038
tp775
(I15
I4052
tp776
tp777
s(S'|Where did bocci ori'
p778
S'|A jury has conclude'
p779
tp780
(g4
(g8
S'\x00\x00\x00\x00\x00\x00(@'
p781
tp782
Rp783
S'he|re|| did '
p784
S'helmets did '
p785
(I1
I1743
tp786
(I10
I1755
tp787
tp788
s(S'|Where did bocci ori'
p789
S'|The finances have h'
p790
tp791
(g4
(g8
S'\x00\x00\x00\x00\x00\x000@'
p792
tp793
Rp794
S' origina'
p795
S' origina'
p796
(I15
I2158
tp797
(I23
I2166
tp798
tp799
s(S'|How old is the sun?'
p800
S"|Lockheed Corp .'s C"
p801
tp802
(g4
(g8
S'\x00\x00\x00\x00\x00\x00.@'
p803
tp804
Rp805
S' old i|s the su'
p806
S' o|f its two su'
p807
(I3
I794
tp808
(I17
I808
tp809
tp810
s(S'|Where did bocci ori'
p811
S'|And speaking of SJC'
p812
tp813
(g4
(g8
S'\x00\x00\x00\x00\x00\x000@'
p814
tp815
Rp816
S' origina'
p817
S' origina'
p818
(I15
I397
tp819
(I23
I405
tp820
tp821
s(S"|Where's Montenegro?"
p822
S'|BFN   <f p= "106 ">'
p823
tp824
(g4
(g8
S'\x00\x00\x00\x00\x00\x007@'
p825
tp826
Rp827
S"ere's Montenegro"
p828
S'e|e . Montenegro'
p829
(I2
I2250
tp830
(I18
I2265
tp831
tp832
s(S'|What is the wingspa'
p833
S'|An egg laid in capt'
p834
tp835
(g4
(g8
S'\x00\x00\x00\x00\x00\x004@'
p836
tp837
Rp838
S' the wingspan of ||a| condor'
p839
S" the |||||park's lead condor"
p840
(I7
I196
tp841
(I32
I219
tp842
tp843
s(S'|What is the wingspa'
p844
S'| "Next year we\'re h'
p845
tp846
(g4
(g8
S'\x00\x00\x00\x00\x00\x004@'
p847
tp848
Rp849
S' the wi||||ngspan of|||| ||||a condor'
p850
S' the wildernes||s of the Sespe Condor'
p851
(I7
I1358
tp852
(I32
I1393
tp853
tp854
s(S'|What was the name o'
p855
S'|The sky was cloudy '
p856
tp857
(g4
(g8
S'\x00\x00\x00\x00\x00\x00;@'
p858
tp859
Rp860
S's the |||name of the '
p861
S's the release of the '
p862
(I7
I951
tp863
(I25
I972
tp864
tp865
s(S'|Where did bocci ori'
p866
S'|After he came to Am'
p867
tp868
(g4
(g8
S'\x00\x00\x00\x00\x00\x00&@'
p869
tp870
Rp871
S'here |di|d bo'
p872
S'her| tried to'
p873
(I1
I858
tp874
(I12
I870
tp875
tp876
s(S'|Where did bocci ori'
p877
S'|<p> In San Francisc'
p878
tp879
(g4
(g8
S'\x00\x00\x00\x00\x00\x00,@'
p880
tp881
Rp882
S' origin'
p883
S' origin'
p884
(I15
I6754
tp885
(I22
I6761
tp886
tp887
s(S'|What was the name o'
p888
S'|Five astronauts boa'
p889
tp890
(g4
(g8
S'\x00\x00\x00\x00\x00\x00>@'
p891
tp892
Rp893
S't| wa|s th||e name| o|||||||f the first Russian '
p894
S'th pads |have |been occupied; the first was i|n '
p895
(I3
I1508
tp896
(I39
I1553
tp897
tp898
s(S'|What is the wingspa'
p899
S'|Condor keepers hobb'
p900
tp901
(g4
(g8
S'\x00\x00\x00\x00\x00\x007@'
p902
tp903
Rp904
S'is|| the |||wingspa|n o|f a condor'
p905
S'ised the know|n| California condor'
p906
(I5
I1974
tp907
(I32
I2006
tp908
tp909
s(S'|Where is Belize loc'
p910
S'|BELIZE holds a gene'
p911
tp912
(g4
(g8
S'\x00\x00\x00\x00\x00\x001@'
p913
tp914
Rp915
S're is Belize '
p916
S'r| to Belize '
p917
(I3
I645
tp918
(I16
I657
tp919
tp920
s(S'|Where did bocci ori'
p921
S'|The gala celebratin'
p922
tp923
(g4
(g8
S'\x00\x00\x00\x00\x00\x00(@'
p924
tp925
Rp926
S'here did '
p927
S'here |in '
p928
(I1
I88
tp929
(I10
I96
tp930
tp931
s(S'|How old is the sun?'
p932
S'|Apollo Computer Inc'
p933
tp934
(g4
(g8
S'\x00\x00\x00\x00\x00\x000@'
p935
tp936
Rp937
S'o|l|d |is the '
p938
S'ollo  "is the '
p939
(I4
I667
tp940
(I15
I681
tp941
tp942
s(S'|Where did bocci ori'
p943
S'|A University of Ore'
p944
tp945
(g4
(g8
S'\x00\x00\x00\x00\x00\x00,@'
p946
tp947
Rp948
S'e di|d |bocci ||originate'
p949
S'e city should coor|dinate'
p950
(I4
I374
tp951
(I25
I398
tp952
tp953
s(S'|What is the wingspa'
p954
S'|<p> Zookeepers kept'
p955
tp956
(g4
(g8
S'\x00\x00\x00\x00\x00\x00>@'
p957
tp958
Rp959
S' is the wingspan ||of a condor'
p960
S' is the fi|rs||t time a condor'
p961
(I4
I750
tp962
(I32
I777
tp963
tp964
s(S'|Where did bocci ori'
p965
S'|American Ballet The'
p966
tp967
(g4
(g8
S'\x00\x00\x00\x00\x00\x00$@'
p968
tp969
Rp970
S'here '
p971
S'here '
p972
(I1
I2486
tp973
(I6
I2491
tp974
tp975
s(S'|How old is the sun?'
p976
S'|Analysts said Apple'
p977
tp978
(g4
(g8
S'\x00\x00\x00\x00\x00\x001@'
p979
tp980
Rp981
S'd is the s'
p982
S'd in the s'
p983
(I6
I1112
tp984
(I16
I1122
tp985
tp986
s(S'|How old is the sun?'
p987
S'| "This makes it dif'
p988
tp989
(g4
(g8
S'\x00\x00\x00\x00\x00\x00.@'
p990
tp991
Rp992
S' |old|| is||| the '
p993
S' to|day is on the '
p994
(I3
I788
tp995
(I15
I805
tp996
tp997
s(S'|How old is the sun?'
p998
S'|A Sun spokeswoman a'
p999
tp1000
(g4
(g8
S'\x00\x00\x00\x00\x00\x00*@'
p1001
tp1002
Rp1003
S' is the '
p1004
S' as the '
p1005
(I7
I2006
tp1006
(I15
I2014
tp1007
tp1008
s(S'|Where did bocci ori'
p1009
S'|All but one of this'
p1010
tp1011
(g4
(g8
S'\x00\x00\x00\x00\x00\x002@'
p1012
tp1013
Rp1014
S'e| did bocci| origina'
p1015
S'ed |in |their origina'
p1016
(I4
I582
tp1017
(I23
I601
tp1018
tp1019
s(S'|What was the name o'
p1020
S'|Astronaut Donald E '
p1021
tp1022
(g4
(g8
S'\x00\x00\x00\x00\x00\x00=@'
p1023
tp1024
Rp1025
S'an astronaut to| do ||a s'
p1026
S'an astronaut for 11 years'
p1027
(I36
I203
tp1028
(I58
I228
tp1029
tp1030
s(S'|Where is Belize loc'
p1031
S'|BFN     [Text] Afte'
p1032
tp1033
(g4
(g8
S'\x00\x00\x00\x00\x00\x001@'
p1034
tp1035
Rp1036
S'e| is Belize '
p1037
S'ed to Belize '
p1038
(I4
I1670
tp1039
(I16
I1683
tp1040
tp1041
s(S'|Where did bocci ori'
p1042
S'| "Everyone from the'
p1043
tp1044
(g4
(g8
S'\x00\x00\x00\x00\x00\x00&@'
p1045
tp1046
Rp1047
S' bocci '
p1048
S' bocce '
p1049
(I9
I1286
tp1050
(I16
I1293
tp1051
tp1052
s(S'|Where did bocci ori'
p1053
S'|San Francisco Beat '
p1054
tp1055
(g4
(g8
S'\x00\x00\x00\x00\x00\x00(@'
p1056
tp1057
Rp1058
S'here d'
p1059
S'here d'
p1060
(I1
I453
tp1061
(I7
I459
tp1062
tp1063
s(S'|What was the name o'
p1064
S"|Czechoslovakia's tr"
p1065
tp1066
(g4
(g8
S'\x00\x00\x00\x00\x00\x00F@'
p1067
tp1068
Rp1069
S' |of the |firs|||t Rus|sian astronaut| to||| |||do|| a spacewalk'
p1070
S' to| the telescope ||so two astronauts could perform a spacewalk'
p1071
(I17
I3320
tp1072
(I66
I3381
tp1073
tp1074
s(S'|Where is Belize loc'
p1075
S'|BFN     [Excerpt] G'
p1076
tp1077
(g4
(g8
S'\x00\x00\x00\x00\x00\x002@'
p1078
tp1079
Rp1080
S'e is |Belize lo'
p1081
S'e || "Belize Co'
p1082
(I4
I1007
tp1083
(I18
I1020
tp1084
tp1085
s(S'|What was the name o'
p1086
S'|Astronauts Jerry L '
p1087
tp1088
(g4
(g8
S'\x00\x00\x00\x00\x00\x00:@'
p1089
tp1090
Rp1091
S' was the |name o|f the first Russian astronaut to'
p1092
S' was ||a pla|tform th|||||at ||||the astronaut ho'
p1093
(I4
I1089
tp1094
(I51
I1126
tp1095
tp1096
s(S'|Where did bocci ori'
p1097
S'|Except in her exqui'
p1098
tp1099
(g4
(g8
S'\x00\x00\x00\x00\x00\x000@'
p1100
tp1101
Rp1102
S' origina'
p1103
S' origina'
p1104
(I15
I3462
tp1105
(I23
I3470
tp1106
tp1107
s(S"|Where's Montenegro?"
p1108
S'|Article   Type :CSO'
p1109
tp1110
(g4
(g8
S'\x00\x00\x00\x00\x00\x006@'
p1111
tp1112
Rp1113
S' Montenegro'
p1114
S' Montenegro'
p1115
(I7
I165
tp1116
(I18
I176
tp1117
tp1118
s(S'|What is the wingspa'
p1119
S'|A California condor'
p1120
tp1121
(g4
(g8
S'\x00\x00\x00\x00\x00\x005@'
p1122
tp1123
Rp1124
S' the w||ings|pa|n o|f a condor'
p1125
S" the world's California condor"
p1126
(I7
I1344
tp1127
(I32
I1374
tp1128
tp1129
s(S'|How old is the sun?'
p1130
S'|Price cuts on older'
p1131
tp1132
(g4
(g8
S'\x00\x00\x00\x00\x00\x00.@'
p1133
tp1134
Rp1135
S'ow |old is the '
p1136
S'o| follows the '
p1137
(I1
I462
tp1138
(I15
I476
tp1139
tp1140
s(S'|Where did bocci ori'
p1141
S'|Twenty high schools'
p1142
tp1143
(g4
(g8
S'\x00\x00\x00\x00\x00\x00*@'
p1144
tp1145
Rp1146
S'ere did bocci '
p1147
S'er| ||, bocce '
p1148
(I2
I2469
tp1149
(I16
I2480
tp1150
tp1151
s(S'|What was the name o'
p1152
S'| "If we can\'t , the'
p1153
tp1154
(g4
(g8
S'\x00\x00\x00\x00\x00\x80D@'
p1155
tp1156
Rp1157
S' was the |name of the firs||||||||t ||Russia|n astronaut| '
p1158
S" |at the en||d of the mission .;    Columbia's astronauts "
p1159
(I4
I847
tp1160
(I49
I902
tp1161
tp1162
s(S'|What is the wingspa'
p1163
S'|<p> Three Californi'
p1164
tp1165
(g4
(g8
S'\x00\x00\x00\x00\x00\x004@'
p1166
tp1167
Rp1168
S'pa|n of a condor'
p1169
S'pair of|| condor'
p1170
(I17
I1046
tp1171
(I32
I1060
tp1172
tp1173
s(S'|What was the name o'
p1174
S'|Navy Capt . Dick Ri'
p1175
tp1176
(g4
(g8
S'\x00\x00\x00\x00\x00\x00=@'
p1177
tp1178
Rp1179
S' w|as the |na|me| of th|||||e| |first|| Russian astronaut '
p1180
S' when |he learned he |had been selected ||as an astronaut '
p1181
(I4
I1501
tp1182
(I49
I1555
tp1183
tp1184
s(S'|What is the wingspa'
p1185
S'|A fist-sized bundle'
p1186
tp1187
(g4
(g8
S'\x00\x00\x00\x00\x00\x00=@'
p1188
tp1189
Rp1190
S'hat is the wingspan of |a co'
p1191
S'ha|||s ||a wingspan of up to'
p1192
(I1
I1758
tp1193
(I28
I1781
tp1194
tp1195
s(S'|What is the wingspa'
p1196
S'|A decision on the h'
p1197
tp1198
(g4
(g8
S'\x00\x00\x00\x00\x00\x006@'
p1199
tp1200
Rp1201
S'hat is the|| wing||s|pa'
p1202
S'h|t |, their wings sepa'
p1203
(I1
I3108
tp1204
(I19
I3129
tp1205
tp1206
s(S'|Where did bocci ori'
p1207
S'|Briggs would rather'
p1208
tp1209
(g4
(g8
S'\x00\x00\x00\x00\x00\x00$@'
p1210
tp1211
Rp1212
S'here '
p1213
S'here '
p1214
(I1
I947
tp1215
(I6
I952
tp1216
tp1217
s(S'|Where is Belize loc'
p1218
S'|BFN     [Text] The '
p1219
tp1220
(g4
(g8
S'\x00\x00\x00\x00\x00\x004@'
p1221
tp1222
Rp1223
S'er|||e |i|s Belize '
p1224
S'erence with Belize '
p1225
(I2
I815
tp1226
(I16
I834
tp1227
tp1228
s(S'|Where did bocci ori'
p1229
S'|The first Hans Chri'
p1230
tp1231
(g4
(g8
S'\x00\x00\x00\x00\x00\x00(@'
p1232
tp1233
Rp1234
S'ere ||d||||id bocci o'
p1235
S'er| and Julio Bocca o'
p1236
(I2
I1331
tp1237
(I17
I1351
tp1238
tp1239
s(S'|Where did bocci ori'
p1240
S'|BFN     [Text] Let '
p1241
tp1242
(g4
(g8
S'\x00\x00\x00\x00\x00\x00*@'
p1243
tp1244
Rp1245
S'i |or|ig|||in|ate'
p1246
S'i Foreign Ministe'
p1247
(I14
I470
tp1248
(I25
I487
tp1249
tp1250
s(S'|How old is the sun?'
p1251
S'|Hewlett-Packard , S'
p1252
tp1253
(g4
(g8
S'\x00\x00\x00\x00\x00\x00*@'
p1254
tp1255
Rp1256
S' |old is ||the |s'
p1257
S' hold as much| as'
p1258
(I3
I1153
tp1259
(I16
I1169
tp1260
tp1261
s(S'|Where did bocci ori'
p1262
S'|Prospective jurors '
p1263
tp1264
(g4
(g8
S'\x00\x00\x00\x00\x00\x00(@'
p1265
tp1266
Rp1267
S'he|re| did bocci o'
p1268
S'he reputed bo|ss o'
p1269
(I1
I571
tp1270
(I17
I588
tp1271
tp1272
s(S'|Where did bocci ori'
p1273
S"|Let's hope that the"
p1274
tp1275
(g4
(g8
S'\x00\x00\x00\x00\x00\x000@'
p1276
tp1277
Rp1278
S' origina'
p1279
S' origina'
p1280
(I15
I507
tp1281
(I23
I515
tp1282
tp1283
s(S'|How old is the sun?'
p1284
S'|DIGITAL Equipment ('
p1285
tp1286
(g4
(g8
S'\x00\x00\x00\x00\x00\x00.@'
p1287
tp1288
Rp1289
S' is |the '
p1290
S" is 'the "
p1291
(I7
I2467
tp1292
(I15
I2476
tp1293
tp1294
s(S'|What was the name o'
p1295
S'| "Very nice braking'
p1296
tp1297
(g4
(g8
S'\x00\x00\x00\x00\x00\x00D@'
p1298
tp1299
Rp1300
S' the |||||na||||me of the| first Russian |a||||st|r||onaut to do a||| space|walk'
p1301
S" the antenna loose |, then ||got |||||an early start on||| to|d||ay's space-walk"
p1302
(I8
I815
tp1303
(I66
I881
tp1304
tp1305
s(S'|Where did bocci ori'
p1306
S'|About 30 food booth'
p1307
tp1308
(g4
(g8
S'\x00\x00\x00\x00\x00\x00$@'
p1309
tp1310
Rp1311
S' bocc'
p1312
S' bocc'
p1313
(I9
I96
tp1314
(I14
I101
tp1315
tp1316
s(S'|How old is the sun?'
p1317
S'|SUN Microsystems ai'
p1318
tp1319
(g4
(g8
S'\x00\x00\x00\x00\x00\x00.@'
p1320
tp1321
Rp1322
S'd is the '
p1323
S'd in the '
p1324
(I6
I667
tp1325
(I15
I676
tp1326
tp1327
s(S'|Where is Belize loc'
p1328
S'|Farce , rather than'
p1329
tp1330
(g4
(g8
S'\x00\x00\x00\x00\x00\x000@'
p1331
tp1332
Rp1333
S' Belize '
p1334
S' Belize '
p1335
(I8
I619
tp1336
(I16
I627
tp1337
tp1338
s(S'|How old is the sun?'
p1339
S'|Silicon Graphics Co'
p1340
tp1341
(g4
(g8
S'\x00\x00\x00\x00\x00\x00,@'
p1342
tp1343
Rp1344
S' |ol|d i||||s||| the s'
p1345
S' color images on the s'
p1346
(I3
I475
tp1347
(I16
I497
tp1348
tp1349
s(S'|How old is the sun?'
p1350
S'|In early June , Sun'
p1351
tp1352
(g4
(g8
S'\x00\x00\x00\x00\x00\x001@'
p1353
tp1354
Rp1355
S'w| |old is the s'
p1356
S'we told||| the s'
p1357
(I2
I2451
tp1358
(I16
I2464
tp1359
tp1360
s(S"|Where's Montenegro?"
p1361
S'|BFN     [Text] Ceti'
p1362
tp1363
(g4
(g8
S'\x00\x00\x00\x00\x00\x006@'
p1364
tp1365
Rp1366
S' Montenegro'
p1367
S' Montenegro'
p1368
(I7
I84
tp1369
(I18
I95
tp1370
tp1371
s(S'|How old is the sun?'
p1372
S'|Revenue for the fou'
p1373
tp1374
(g4
(g8
S'\x00\x00\x00\x00\x00\x00,@'
p1375
tp1376
Rp1377
S' |old i|s '
p1378
S' sold its '
p1379
(I3
I653
tp1380
(I11
I663
tp1381
tp1382
s(S'|How old is the sun?'
p1383
S'|If it succeeds , th'
p1384
tp1385
(g4
(g8
S'\x00\x00\x00\x00\x00\x000@'
p1386
tp1387
Rp1388
S' is the '
p1389
S' is the '
p1390
(I7
I1217
tp1391
(I15
I1225
tp1392
tp1393
s(S'|What is the wingspa'
p1394
S'|Love is in the air '
p1395
tp1396
(g4
(g8
S'\x00\x00\x00\x00\x00\x008@'
p1397
tp1398
Rp1399
S' wingspan|||||| |of ||||a| condor'
p1400
S' wingspans .    The Andean condor'
p1401
(I11
I2679
tp1402
(I32
I2712
tp1403
tp1404
s(S'|What is the wingspa'
p1405
S'| "You could tell ou'
p1406
tp1407
(g4
(g8
S'\x00\x00\x00\x00\x00\x004@'
p1408
tp1409
Rp1410
S' wingspan '
p1411
S' wingspan '
p1412
(I11
I1406
tp1413
(I21
I1416
tp1414
tp1415
s(S'|What was the name o'
p1416
S'|The long-delayed Co'
p1417
tp1418
(g4
(g8
S'\x00\x00\x00\x00\x00\x80@@'
p1419
tp1420
Rp1421
S' was ||the name of th||e |||fi|rst Russi||||an||||| |||ast|||r|onaut to |do |a space'
p1422
S' |a| vet|e|ra|n of three previous| missions and the oldest person||| to fly in space'
p1423
(I4
I62
tp1424
(I62
I137
tp1425
tp1426
s(S"|Where's Montenegro?"
p1427
S'|BFN     [Text] Podg'
p1428
tp1429
(g4
(g8
S'\x00\x00\x00\x00\x00\x009@'
p1430
tp1431
Rp1432
S"here's Montenegro"
p1433
S'her||  Montenegro'
p1434
(I1
I429
tp1435
(I18
I444
tp1436
tp1437
s(S'|What is the wingspa'
p1438
S'|The first of two he'
p1439
tp1440
(g4
(g8
S'\x00\x00\x00\x00\x00\x004@'
p1441
tp1442
Rp1443
S' the wingspa|n of ||a| |c'
p1444
S' the vang|uard of what sc'
p1445
(I7
I1139
tp1446
(I27
I1163
tp1447
tp1448
s(S'|How old is the sun?'
p1449
S'|IBM unveiled a line'
p1450
tp1451
(g4
(g8
S'\x00\x00\x00\x00\x00\x001@'
p1452
tp1453
Rp1454
S' is the su'
p1455
S' in the su'
p1456
(I7
I2407
tp1457
(I17
I2417
tp1458
tp1459
s(S'|How old is the sun?'
p1460
S'|Compaq Computer Cor'
p1461
tp1462
(g4
(g8
S'\x00\x00\x00\x00\x00\x000@'
p1463
tp1464
Rp1465
S' is the '
p1466
S' is the '
p1467
(I7
I1351
tp1468
(I15
I1359
tp1469
tp1470
s(S'|How old is the sun?'
p1471
S'|The competition amo'
p1472
tp1473
(g4
(g8
S'\x00\x00\x00\x00\x00\x002@'
p1474
tp1475
Rp1476
S'd is the '
p1477
S'd is the '
p1478
(I6
I2883
tp1479
(I15
I2892
tp1480
tp1481
s(S'|Where is Belize loc'
p1482
S"|<p> It's not exactl"
p1483
tp1484
(g4
(g8
S'\x00\x00\x00\x00\x00\x002@'
p1485
tp1486
Rp1487
S'ere |is Belize '
p1488
S'er| the Belize '
p1489
(I2
I888
tp1490
(I16
I902
tp1491
tp1492
s(S'|Where did bocci ori'
p1493
S"|<p> Star-cross'd ca"
p1494
tp1495
(g4
(g8
S'\x00\x00\x00\x00\x00\x000@'
p1496
tp1497
Rp1498
S' origina'
p1499
S' origina'
p1500
(I15
I1042
tp1501
(I23
I1050
tp1502
tp1503
s(S'|Where is Belize loc'
p1504
S"|CENTRAL AMERICA's d"
p1505
tp1506
(g4
(g8
S'\x00\x00\x00\x00\x00\x007@'
p1507
tp1508
Rp1509
S're is Belize '
p1510
S're in Belize '
p1511
(I3
I961
tp1512
(I16
I974
tp1513
tp1514
s(S'|What was the name o'
p1515
S'|The Discovery astro'
p1516
tp1517
(g4
(g8
S'\x00\x00\x00\x00\x00\x009@'
p1518
tp1519
Rp1520
S' astronaut| ||to do a space|walk'
p1521
S' astronauts alread||y |have walk'
p1522
(I38
I1977
tp1523
(I66
I2006
tp1524
tp1525
s(S'|What was the name o'
p1526
S'|Here are brief sket'
p1527
tp1528
(g4
(g8
S'\x00\x00\x00\x00\x00\x00<@'
p1529
tp1530
Rp1531
S' astronaut ||||to ||do |||a spacewa'
p1532
S' astronaut first| flew into space a'
p1533
(I38
I665
tp1534
(I64
I699
tp1535
tp1536
s(S'|What was the name o'
p1537
S'|US astronauts succe'
p1538
tp1539
(g4
(g8
S'\x00\x00\x00\x00\x00\x00:@'
p1540
tp1541
Rp1542
S' astronaut| |to do '
p1543
S' astronauts can do '
p1544
(I38
I238
tp1545
(I55
I257
tp1546
tp1547
s(S'|Where is Belize loc'
p1548
S'|THE award this mont'
p1549
tp1550
(g4
(g8
S'\x00\x00\x00\x00\x00\x003@'
p1551
tp1552
Rp1553
S'is| Belize '
p1554
S'ise Belize '
p1555
(I6
I1457
tp1556
(I16
I1468
tp1557
tp1558
s(S'|What is the wingspa'
p1559
S'|The release of Hoin'
p1560
tp1561
(g4
(g8
S'\x00\x00\x00\x00\x00\x003@'
p1562
tp1563
Rp1564
S's| the wingspa|n o|f a condor'
p1565
S'se the |||||California condor'
p1566
(I6
I789
tp1567
(I32
I813
tp1568
tp1569
s(S'|What was the name o'
p1570
S'|A new NASA report c'
p1571
tp1572
(g4
(g8
S'\x00\x00\x00\x00\x00\x00>@'
p1573
tp1574
Rp1575
S' of the ||fir|||st|| |Rus|||sia|||n| astronaut| '
p1576
S' of the solar system by spacewalking astronauts '
p1577
(I17
I466
tp1578
(I49
I514
tp1579
tp1580
s(S'|What is the wingspa'
p1581
S'|A Boy Scout who cra'
p1582
tp1583
(g4
(g8
S'\x00\x00\x00\x00\x00\x008@'
p1584
tp1585
Rp1586
S'ingspan of|| ||a| condor'
p1587
S'ings||| of a real condor'
p1588
(I13
I2584
tp1589
(I32
I2605
tp1590
tp1591
s(S'|Where did bocci ori'
p1592
S'|BFN   <f p= "106 ">'
p1593
tp1594
(g4
(g8
S'\x00\x00\x00\x00\x00\x00,@'
p1595
tp1596
Rp1597
S'ere did bo'
p1598
S'ers did so'
p1599
(I2
I2831
tp1600
(I12
I2841
tp1601
tp1602
s(S'|Where is Belize loc'
p1603
S'|FOR MORE than 40 ye'
p1604
tp1605
(g4
(g8
S'\x00\x00\x00\x00\x00\x001@'
p1606
tp1607
Rp1608
S' Belize lo'
p1609
S' Belize wo'
p1610
(I8
I412
tp1611
(I18
I422
tp1612
tp1613
s(S'|How old is the sun?'
p1614
S'|Sun Microsystems In'
p1615
tp1616
(g4
(g8
S'\x00\x00\x00\x00\x00\x00.@'
p1617
tp1618
Rp1619
S' |old i|s |the '
p1620
S' sold its line '
p1621
(I3
I41
tp1622
(I15
I56
tp1623
tp1624
s(S'|What was the name o'
p1625
S'| "We\'re extremely p'
p1626
tp1627
(g4
(g8
S'\x00\x00\x00\x00\x00\x00<@'
p1628
tp1629
Rp1630
S' astronaut||||| t|o do|| a space'
p1631
S' astronauts saw the Soviet space'
p1632
(I38
I305
tp1633
(I62
I337
tp1634
tp1635
s(S'|Where is Belize loc'
p1636
S'|THE Guatemalan gove'
p1637
tp1638
(g4
(g8
S'\x00\x00\x00\x00\x00\x000@'
p1639
tp1640
Rp1641
S' Belize '
p1642
S' Belize '
p1643
(I8
I2705
tp1644
(I16
I2713
tp1645
tp1646
s(S"|Where's Montenegro?"
p1647
S'|BFN     [Text] Lond'
p1648
tp1649
(g4
(g8
S'\x00\x00\x00\x00\x00\x006@'
p1650
tp1651
Rp1652
S' Montenegro'
p1653
S' Montenegro'
p1654
(I7
I73
tp1655
(I18
I84
tp1656
tp1657
s(S'|What was the name o'
p1658
S'|An emergency spacew'
p1659
tp1660
(g4
(g8
S'\x00\x00\x00\x00\x00\x00<@'
p1661
tp1662
Rp1663
S'as the| |name o|||f |the|| first| Russian astronaut| '
p1664
S'as|t|ed in|to orbit June 5 wi||th ||seven astronauts '
p1665
(I6
I381
tp1666
(I49
I427
tp1667
tp1668
s(S"|Where's Montenegro?"
p1669
S'|CSO   <f p= "106 ">'
p1670
tp1671
(g4
(g8
S'\x00\x00\x00\x00\x00\x006@'
p1672
tp1673
Rp1674
S' Montenegro'
p1675
S' Montenegro'
p1676
(I7
I1326
tp1677
(I18
I1337
tp1678
tp1679
s(S'|What is the wingspa'
p1680
S'|A tiny California c'
p1681
tp1682
(g4
(g8
S'\x00\x00\x00\x00\x00\x00=@'
p1683
tp1684
Rp1685
S' |is th|e wing|span of |a co'
p1686
S' wi||th a wing span of up to'
p1687
(I4
I1416
tp1688
(I28
I1442
tp1689
tp1690
s(S'|Where did bocci ori'
p1691
S'|Festivals and fairs'
p1692
tp1693
(g4
(g8
S'\x00\x00\x00\x00\x00\x000@'
p1694
tp1695
Rp1696
S' origina'
p1697
S' origina'
p1698
(I15
I37
tp1699
(I23
I45
tp1700
tp1701
s(S'|What is the wingspa'
p1702
S'|After weeks of amor'
p1703
tp1704
(g4
(g8
S'\x00\x00\x00\x00\x00\x003@'
p1705
tp1706
Rp1707
S' wingspan| '
p1708
S' wingspans '
p1709
(I11
I1262
tp1710
(I21
I1273
tp1711
tp1712
s(S'|Where did bocci ori'
p1713
S"|A dancer's life is "
p1714
tp1715
(g4
(g8
S'\x00\x00\x00\x00\x00\x00*@'
p1716
tp1717
Rp1718
S'e did bo'
p1719
S'e did no'
p1720
(I4
I1829
tp1721
(I12
I1837
tp1722
tp1723
s(S'|Where did bocci ori'
p1724
S'|<p> And you thought'
p1725
tp1726
(g4
(g8
S'\x00\x00\x00\x00\x00\x00*@'
p1727
tp1728
Rp1729
S'e| |did bocci '
p1730
S'el hair bocca '
p1731
(I4
I1360
tp1732
(I16
I1374
tp1733
tp1734
s(S'|How old is the sun?'
p1735
S'|Digital Equipment C'
p1736
tp1737
(g4
(g8
S'\x00\x00\x00\x00\x00\x001@'
p1738
tp1739
Rp1740
S'ow o|ld is the s'
p1741
S'owdowns in the s'
p1742
(I1
I3540
tp1743
(I16
I3556
tp1744
tp1745
s(S'|Where did bocci ori'
p1746
S'|Joined by Councilma'
p1747
tp1748
(g4
(g8
S'\x00\x00\x00\x00\x00\x000@'
p1749
tp1750
Rp1751
S'ere |did bocci ||originate'
p1752
S'ere said to||| proliferate'
p1753
(I2
I1402
tp1754
(I25
I1425
tp1755
tp1756
s(S'|What is the wingspa'
p1757
S'|An excited young An'
p1758
tp1759
(g4
(g8
S'\x00\x00\x00\x00\x00\x007@'
p1760
tp1761
Rp1762
S' the| wingspan| ||of ||a con'
p1763
S' |her wings and took off |on'
p1764
(I7
I38
tp1765
(I29
I64
tp1766
tp1767
s(S'|What was the name o'
p1768
S'|<p> The proposed U '
p1769
tp1770
(g4
(g8
S'\x00\x00\x00\x00\x00\x009@'
p1771
tp1772
Rp1773
S's the nam|e| of ||the||||| f|||||||irst Russian astronaut| '
p1774
S's|tic number of spacewalks for repairs| |before astronauts '
p1775
(I7
I102
tp1776
(I49
I158
tp1777
tp1778
s(S'|What was the name o'
p1779
S"|Mission Control's B"
p1780
tp1781
(g4
(g8
S'\x00\x00\x00\x00\x00\x00?@'
p1782
tp1783
Rp1784
S'me of the fi|rs|||t Russi||||||||a|n astronaut '
p1785
S'me of the views are amazing , " said astronaut '
p1786
(I15
I2580
tp1787
(I49
I2627
tp1788
tp1789
s(S'|How old is the sun?'
p1790
S'|Sun said its net in'
p1791
tp1792
(g4
(g8
S'\x00\x00\x00\x00\x00\x00,@'
p1793
tp1794
Rp1795
S' is the su'
p1796
S' in the qu'
p1797
(I7
I422
tp1798
(I17
I432
tp1799
tp1800
s(S'|What was the name o'
p1801
S'|Air Force Lt . Col '
p1802
tp1803
(g4
(g8
S'\x00\x00\x00\x00\x00\x80A@'
p1804
tp1805
Rp1806
S' astronaut||||| to| ||||||d||o |a spacewalk'
p1807
S' astronauts had not planned to go spacewalk'
p1808
(I38
I1607
tp1809
(I66
I1650
tp1810
tp1811
s(S'|Where is Belize loc'
p1812
S'|BELIZE faces an arr'
p1813
tp1814
(g4
(g8
S'\x00\x00\x00\x00\x00\x006@'
p1815
tp1816
Rp1817
S' is Belize '
p1818
S' is Belize '
p1819
(I5
I191
tp1820
(I16
I202
tp1821
tp1822
s(S'|What is the wingspa'
p1823
S'|<p> A California co'
p1824
tp1825
(g4
(g8
S'\x00\x00\x00\x00\x00\x008@'
p1826
tp1827
Rp1828
S'at is| ||t|he wing||s|pa|n of a c'
p1829
S'at|est hatch|||ing is part of a c'
p1830
(I2
I524
tp1831
(I27
I553
tp1832
tp1833
s(S'|How old is the sun?'
p1834
S'| "This is the first'
p1835
tp1836
(g4
(g8
S'\x00\x00\x00\x00\x00\x000@'
p1837
tp1838
Rp1839
S' is the '
p1840
S' is the '
p1841
(I7
I6
tp1842
(I15
I14
tp1843
tp1844
s(S'|What was the name o'
p1845
S'|Ground controllers '
p1846
tp1847
(g4
(g8
S'\x00\x00\x00\x00\x00\x00F@'
p1848
tp1849
Rp1850
S' |of the |firs|||t Rus|sian astronaut| to||| |||do|| a spacewalk'
p1851
S' to| the telescope ||so two astronauts could perform a spacewalk'
p1852
(I17
I3905
tp1853
(I66
I3966
tp1854
tp1855
s(S'|How old is the sun?'
p1856
S'|But now a new breed'
p1857
tp1858
(g4
(g8
S'\x00\x00\x00\x00\x00\x00*@'
p1859
tp1860
Rp1861
S' is th|e'
p1862
S' is thre'
p1863
(I7
I33
tp1864
(I14
I41
tp1865
tp1866
s(S'|Where did bocci ori'
p1867
S'|<p> In a departure '
p1868
tp1869
(g4
(g8
S'\x00\x00\x00\x00\x00\x00*@'
p1870
tp1871
Rp1872
S'here did bo'
p1873
S'here |is fo'
p1874
(I1
I978
tp1875
(I12
I988
tp1876
tp1877
s(S'|What is the wingspa'
p1878
S'|<p> The laying of a'
p1879
tp1880
(g4
(g8
S'\x00\x00\x00\x00\x00\x009@'
p1881
tp1882
Rp1883
S' the ||||wing|spa||n|| ||||of a condor'
p1884
S' the breeding season , citing a condor'
p1885
(I7
I2534
tp1886
(I32
I2572
tp1887
tp1888
s(S'|What was the name o'
p1889
S'| "Congratulations o'
p1890
tp1891
(g4
(g8
S'\x00\x00\x00\x00\x00\x00B@'
p1892
tp1893
Rp1894
S' was the name of the first Russi||||||an astronaut '
p1895
S' was ||fin||e on the right |||side .;    Astronaut '
p1896
(I4
I819
tp1897
(I49
I863
tp1898
tp1899
s(S'|Where did bocci ori'
p1900
S'|<p> A year go , Twy'
p1901
tp1902
(g4
(g8
S'\x00\x00\x00\x00\x00\x00,@'
p1903
tp1904
Rp1905
S'ere did boc|ci |originate'
p1906
S'er| ||, become more in|te'
p1907
(I2
I3066
tp1908
(I25
I3087
tp1909
tp1910
s(S'|What is the wingspa'
p1911
S'|The first Californi'
p1912
tp1913
(g4
(g8
S'\x00\x00\x00\x00\x00\x00>@'
p1914
tp1915
Rp1916
S't i|s the ||wingspan of a c'
p1917
S'tains the makings||| of a c'
p1918
(I3
I79
tp1919
(I27
I103
tp1920
tp1921
s(S'|How old is the sun?'
p1922
S"|Sun has the world's"
p1923
tp1924
(g4
(g8
S'\x00\x00\x00\x00\x00\x000@'
p1925
tp1926
Rp1927
S' is the '
p1928
S' is the '
p1929
(I7
I532
tp1930
(I15
I540
tp1931
tp1932
s(S'|How old is the sun?'
p1933
S"|Sun's new decree , "
p1934
tp1935
(g4
(g8
S'\x00\x00\x00\x00\x00\x00*@'
p1936
tp1937
Rp1938
S' is the '
p1939
S' as the '
p1940
(I7
I542
tp1941
(I15
I550
tp1942
tp1943
s(S'|What is the wingspa'
p1944
S'|<p> The California '
p1945
tp1946
(g4
(g8
S'\x00\x00\x00\x00\x00\x005@'
p1947
tp1948
Rp1949
S' the wings|||pa|n o|f a condor'
p1950
S' the fi|rst  California condor'
p1951
(I7
I1291
tp1952
(I32
I1320
tp1953
tp1954
s(S'|What is the wingspa'
p1955
S'|<p> Biologists tryi'
p1956
tp1957
(g4
(g8
S'\x00\x00\x00\x00\x00\x003@'
p1958
tp1959
Rp1960
S' wingspan| '
p1961
S' wingspans '
p1962
(I11
I318
tp1963
(I21
I329
tp1964
tp1965
s(S'|What is the wingspa'
p1966
S'|Molloko , the Calif'
p1967
tp1968
(g4
(g8
S'\x00\x00\x00\x00\x00\x004@'
p1969
tp1970
Rp1971
S'is|| the wingspa|n o|f a condor'
p1972
S'ised the |||||California condor'
p1973
(I5
I911
tp1974
(I32
I937
tp1975
tp1976
s(S'|What was the name o'
p1977
S'|A new space race is'
p1978
tp1979
(g4
(g8
S'\x00\x00\x00\x00\x00\x00B@'
p1980
tp1981
Rp1982
S'an| astronaut ||||||to do a||||| spacewalk'
p1983
S'and astronaut Spring , in a 1985 spacewalk'
p1984
(I36
I5601
tp1985
(I66
I5643
tp1986
tp1987
s(S'|What was the name o'
p1988
S'|<p> The Discovery a'
p1989
tp1990
(g4
(g8
S'\x00\x00\x00\x00\x00\x00A@'
p1991
tp1992
Rp1993
S't was the||| |name| ||of |the fir|||st Russian| |astronaut to d|o a spacewalk'
p1994
S't was |being pulled from it|s ||reel . Mission  Contro|||l |ordered spacewalk'
p1995
(I3
I923
tp1996
(I66
I992
tp1997
tp1998
s(S'|Where did bocci ori'
p1999
S'|To this end , they '
p2000
tp2001
(g4
(g8
S'\x00\x00\x00\x00\x00\x00,@'
p2002
tp2003
Rp2004
S'ere d||i||d b'
p2005
S'ere devised b'
p2006
(I2
I661
tp2007
(I11
I674
tp2008
tp2009
s(S'|Where is Belize loc'
p2010
S'|TWO important devel'
p2011
tp2012
(g4
(g8
S'\x00\x00\x00\x00\x00\x003@'
p2013
tp2014
Rp2015
S' is Belize|| ||locat'
p2016
S" as Belize's rel||at"
p2017
(I5
I1922
tp2018
(I21
I1940
tp2019
tp2020
s(S'|Where did bocci ori'
p2021
S'|In none of their in'
p2022
tp2023
(g4
(g8
S'\x00\x00\x00\x00\x00\x00,@'
p2024
tp2025
Rp2026
S'here did bo|c'
p2027
S'here |is no c'
p2028
(I1
I4261
tp2029
(I13
I4273
tp2030
tp2031
s(S'|Where is Belize loc'
p2032
S'|MR Manuel Esquivel '
p2033
tp2034
(g4
(g8
S'\x00\x00\x00\x00\x00\x003@'
p2035
tp2036
Rp2037
S'ere is Belize '
p2038
S'er| of Belize '
p2039
(I2
I97
tp2040
(I16
I110
tp2041
tp2042
s(S'|Where did bocci ori'
p2043
S'|<p> Her extension s'
p2044
tp2045
(g4
(g8
S'\x00\x00\x00\x00\x00\x00*@'
p2046
tp2047
Rp2048
S'here did bo'
p2049
S'here |it co'
p2050
(I1
I99
tp2051
(I12
I109
tp2052
tp2053
s(S'|How old is the sun?'
p2054
S'|Both companies see '
p2055
tp2056
(g4
(g8
S'\x00\x00\x00\x00\x00\x000@'
p2057
tp2058
Rp2059
S' is the '
p2060
S' is the '
p2061
(I7
I531
tp2062
(I15
I539
tp2063
tp2064
s(S'|Where did bocci ori'
p2065
S'|<p> A former high s'
p2066
tp2067
(g4
(g8
S'\x00\x00\x00\x00\x00\x00(@'
p2068
tp2069
Rp2070
S'here did '
p2071
S'here |is '
p2072
(I1
I1297
tp2073
(I10
I1305
tp2074
tp2075
s(S'|How old is the sun?'
p2076
S'|Computers , except '
p2077
tp2078
(g4
(g8
S'\x00\x00\x00\x00\x00\x000@'
p2079
tp2080
Rp2081
S'l|d is the '
p2082
S'led as the '
p2083
(I5
I1644
tp2084
(I15
I1655
tp2085
tp2086
s(S'|How old is the sun?'
p2087
S"|Sun's machine , exp"
p2088
tp2089
(g4
(g8
S'\x00\x00\x00\x00\x00\x001@'
p2090
tp2091
Rp2092
S' |old is the '
p2093
S' no|w is the '
p2094
(I3
I2615
tp2095
(I15
I2627
tp2096
tp2097
s(S'|How old is the sun?'
p2098
S'|Sun also is expecte'
p2099
tp2100
(g4
(g8
S'\x00\x00\x00\x00\x00\x00.@'
p2101
tp2102
Rp2103
S' is the s'
p2104
S' in the s'
p2105
(I7
I466
tp2106
(I16
I475
tp2107
tp2108
s(S'|What is the wingspa'
p2109
S'|Six Andean condors '
p2110
tp2111
(g4
(g8
S'\x00\x00\x00\x00\x00\x006@'
p2112
tp2113
Rp2114
S'hat is the '
p2115
S'hat is the '
p2116
(I1
I3264
tp2117
(I12
I3275
tp2118
tp2119
s(S'|What was the name o'
p2120
S'|NASA , in a rare mo'
p2121
tp2122
(g4
(g8
S'\x00\x00\x00\x00\x00\x80A@'
p2123
tp2124
Rp2125
S' name| |of the first| Russi|an astron'
p2126
S' named for the ||late American astron'
p2127
(I12
I2807
tp2128
(I45
I2842
tp2129
tp2130
s(S"|Where's Montenegro?"
p2131
S'|BFN     [Text] [Ann'
p2132
tp2133
(g4
(g8
S'\x00\x00\x00\x00\x00\x006@'
p2134
tp2135
Rp2136
S' Montenegro'
p2137
S' Montenegro'
p2138
(I7
I1752
tp2139
(I18
I1763
tp2140
tp2141
s(S'|What was the name o'
p2142
S'|After seven years o'
p2143
tp2144
(g4
(g8
S'\x00\x00\x00\x00\x00\x00@@'
p2145
tp2146
Rp2147
S' the ||||n|||ame of the fi|||rst Russian|| astronaut| to d'
p2148
S' the second da|y of the five-day mission . NASA wants to d'
p2149
(I8
I4274
tp2150
(I53
I4331
tp2151
tp2152
s(S'|Where is Belize loc'
p2153
S'|Language : <f p= "1'
p2154
tp2155
(g4
(g8
S'\x00\x00\x00\x00\x00\x002@'
p2156
tp2157
Rp2158
S'here |i|s Belize|| lo'
p2159
S'he|s with Belizean so'
p2160
(I1
I1650
tp2161
(I18
I1670
tp2162
tp2163
s(S'|How old is the sun?'
p2164
S'|The software is par'
p2165
tp2166
(g4
(g8
S'\x00\x00\x00\x00\x00\x00*@'
p2167
tp2168
Rp2169
S' is the '
p2170
S' in the '
p2171
(I7
I983
tp2172
(I15
I991
tp2173
tp2174
s(S'|What is the wingspa'
p2175
S'|The hatchings of tw'
p2176
tp2177
(g4
(g8
S'\x00\x00\x00\x00\x00\x00;@'
p2178
tp2179
Rp2180
S' th||e|| wingspan of '
p2181
S' |have a wingspan of '
p2182
(I7
I1176
tp2183
(I24
I1196
tp2184
tp2185
s(S'|What was the name o'
p2186
S'|The 60-foot-long do'
p2187
tp2188
(g4
(g8
S'\x00\x00\x00\x00\x00\x00A@'
p2189
tp2190
Rp2191
S' of the first Russian astronaut| to| do a'
p2192
S' of the|||||| ||seven astronauts |on bo|a'
p2193
(I17
I346
tp2194
(I56
I377
tp2195
tp2196
s(S'|Where did bocci ori'
p2197
S'|Irma Balderas will '
p2198
tp2199
(g4
(g8
S'\x00\x00\x00\x00\x00\x00$@'
p2200
tp2201
Rp2202
S'here '
p2203
S'here '
p2204
(I1
I564
tp2205
(I6
I569
tp2206
tp2207
s(S'|How old is the sun?'
p2208
S'|Says executive vice'
p2209
tp2210
(g4
(g8
S'\x00\x00\x00\x00\x00\x001@'
p2211
tp2212
Rp2213
S' |old is the '
p2214
S' no|w is the '
p2215
(I3
I4563
tp2216
(I15
I4575
tp2217
tp2218
s(S'|What was the name o'
p2219
S'|Installing a donut-'
p2220
tp2221
(g4
(g8
S'\x00\x00\x00\x00\x00\x00>@'
p2222
tp2223
Rp2224
S'hat was the n|ame |o||f the first||||| |Rus|||sia|||n| astronaut| to '
p2225
S"hat |a| ``donut'' could |be |installed by spacewalking astronauts to "
p2226
(I1
I207
tp2227
(I52
I272
tp2228
tp2229
s(S"|Where's Montenegro?"
p2230
S'|Language : <f p= "1'
p2231
tp2232
(g4
(g8
S'\x00\x00\x00\x00\x00\x008@'
p2233
tp2234
Rp2235
S's Montenegro'
p2236
S's Montenegro'
p2237
(I6
I4647
tp2238
(I18
I4659
tp2239
tp2240
s(S'|What was the name o'
p2241
S'|Bagian had left an '
p2242
tp2243
(g4
(g8
S'\x00\x00\x00\x00\x00\x00D@'
p2244
tp2245
Rp2246
S'hat w|as the name of the first Russian ||ast||ron||au|||t to |do a| '
p2247
S'hat when |we came on th|||i|s| mission tha|t when you get to fly at '
p2248
(I1
I376
tp2249
(I57
I437
tp2250
tp2251
s(S'|Where did bocci ori'
p2252
S'|New York City Balle'
p2253
tp2254
(g4
(g8
S'\x00\x00\x00\x00\x00\x000@'
p2255
tp2256
Rp2257
S' origina'
p2258
S' origina'
p2259
(I15
I2584
tp2260
(I23
I2592
tp2261
tp2262
s(S'|Where did bocci ori'
p2263
S'|Federal prosecutors'
p2264
tp2265
(g4
(g8
S'\x00\x00\x00\x00\x00\x00$@'
p2266
tp2267
Rp2268
S'ere d||i|d boc'
p2269
S'ers dating bac'
p2270
(I2
I660
tp2271
(I13
I674
tp2272
tp2273
s(S'|What is the wingspa'
p2274
S'|A newborn Californi'
p2275
tp2276
(g4
(g8
S'\x00\x00\x00\x00\x00\x00A@'
p2277
tp2278
Rp2279
S't is the wingsp|an| of|||| |a|| condor'
p2280
S't is the |offspring of the same condor'
p2281
(I3
I1004
tp2282
(I32
I1041
tp2283
tp2284
s(S'|What is the wingspa'
p2285
S'|The Philadelphia Zo'
p2286
tp2287
(g4
(g8
S'\x00\x00\x00\x00\x00\x00=@'
p2288
tp2289
Rp2290
S'hat is the wingspan of |a co'
p2291
S'ha|||s ||a wingspan of up to'
p2292
(I1
I2115
tp2293
(I28
I2138
tp2294
tp2295
s(S'|Where is Belize loc'
p2296
S'|A Guatemalan gunboa'
p2297
tp2298
(g4
(g8
S'\x00\x00\x00\x00\x00\x004@'
p2299
tp2300
Rp2301
S'e| is Belize '
p2302
S'ed in Belize '
p2303
(I4
I1111
tp2304
(I16
I1124
tp2305
tp2306
s(S'|What was the name o'
p2307
S'|<p> The launch of t'
p2308
tp2309
(g4
(g8
S'\x00\x00\x00\x00\x00\x80E@'
p2310
tp2311
Rp2312
S' the ||name of the first Russian|||||| astronaut| '
p2313
S' the course of the||ir|| mission , the astronauts '
p2314
(I8
I2040
tp2315
(I49
I2086
tp2316
tp2317
s(S'|What was the name o'
p2318
S'|NASA launched the s'
p2319
tp2320
(g4
(g8
S'\x00\x00\x00\x00\x00\x80F@'
p2321
tp2322
Rp2323
S' the first Russian astronaut| to ||do a space'
p2324
S' The first ||||non-astronauts go into|| space'
p2325
(I20
I938
tp2326
(I62
I977
tp2327
tp2328
s.