(dp0
(S'|What is the wingspa'
p1
S'|Two eggs laid by ca'
p2
tp3
(cnumpy.core.multiarray
scalar
p4
(cnumpy
dtype
p5
(S'f8'
p6
I0
I1
tp7
Rp8
(I3
S'<'
p9
NNNI-1
I-1
I0
tp10
bS'\x00\x00\x00\x00\x00\x003@'
p11
tp12
Rp13
S'at is |the| ||||wing|span of a| '
p14
S"ate's other breeding station at "
p15
(I2
I338
tp16
(I26
I370
tp17
tp18
s(S'|What was the name o'
p19
S'|Mission specialist '
p20
tp21
(g4
(g8
S'\x00\x00\x00\x00\x00\x80B@'
p22
tp23
Rp24
S'hat was t||he|| |||name of the |fir||||s||||t||||| Russian a|||||s|tr|onaut to |||do|| a spacewalk'
p25
S'h|t |is to help operate||| the Astro observatory , Hoffman also is train|ed to perform a spacewalk'
p26
(I1
I495
tp27
(I66
I587
tp28
tp29
s(S'|What was the name o'
p30
S'|Language : <f p= "1'
p31
tp32
(g4
(g8
S'\x00\x00\x00\x00\x00\x00G@'
p33
tp34
Rp35
S' wa||s the |name of| the first |||Russi||||||an||||||| astronaut| to do a '
p36
S' marks the en||d of  the first ever flight when U .S . astronauts |and| a '
p37
(I4
I302
tp38
(I57
I372
tp39
tp40
s(S'|What is the wingspa'
p41
S'|<p> Mandan , the se'
p42
tp43
(g4
(g8
S'\x00\x00\x00\x00\x00\x006@'
p44
tp45
Rp46
S' is the |||wingspan of '
p47
S' is the sibling|||| of '
p48
(I4
I2819
tp49
(I24
I2838
tp50
tp51
s(S'|How old is the sun?'
p52
S"|While Sun's new wor"
p53
tp54
(g4
(g8
S'\x00\x00\x00\x00\x00\x00.@'
p55
tp56
Rp57
S' |o|ld is|||| the '
p58
S' could |stall the '
p59
(I3
I3038
tp60
(I15
I3055
tp61
tp62
s(S'|What was the name o'
p63
S'|Space shuttle Atlan'
p64
tp65
(g4
(g8
S'\x00\x00\x00\x00\x00\x80C@'
p66
tp67
Rp68
S'hat wa|s|| the ||||||name|| of the f|irst |Russian '
p69
S'hat caused the postponement of the flight Thursday '
p70
(I1
I780
tp71
(I39
I831
tp72
tp73
s(S'|Where is Belize loc'
p74
S'|VISITORS arriving a'
p75
tp76
(g4
(g8
S'\x00\x00\x00\x00\x00\x007@'
p77
tp78
Rp79
S'he|r||e ||i|s Belize loca'
p80
S'he role which Belize ||ca'
p81
(I1
I2893
tp82
(I20
I2916
tp83
tp84
s(S'|Where is Belize loc'
p85
S'|WHILE civil war rav'
p86
tp87
(g4
(g8
S'\x00\x00\x00\x00\x00\x005@'
p88
tp89
Rp90
S'ere|||| is Belize '
p91
S'erendum in Belize '
p92
(I2
I2053
tp93
(I16
I2071
tp94
tp95
s(S'|What is the wingspa'
p96
S'|<p> Wildlife offici'
p97
tp98
(g4
(g8
S'\x00\x00\x00\x00\x00\x00>@'
p99
tp100
Rp101
S't |is the wings||pa|n of a condor'
p102
S't was the fi|rst laid by a condor'
p103
(I3
I193
tp104
(I32
I225
tp105
tp106
s(S'|albacore'
p107
S'|bacon'
p108
tp109
(g4
(g8
S'\x00\x00\x00\x00\x00\x00 @'
p110
tp111
Rp112
S'baco'
p113
S'baco'
p114
(I2
I0
tp115
(I6
I4
tp116
tp117
s(S'|albacore'
p118
S'|baecon'
p119
tp120
(g4
(g8
S'\x00\x00\x00\x00\x00\x00\x1c@'
p121
tp122
Rp123
S'ba|co'
p124
S'baeco'
p125
(I2
I0
tp126
(I6
I5
tp127
tp128
s(S'|How old is the sun?'
p129
S'|At the same time , '
p130
tp131
(g4
(g8
S'\x00\x00\x00\x00\x00\x001@'
p132
tp133
Rp134
S' o|ld is the '
p135
S' only in the '
p136
(I3
I5940
tp137
(I15
I5953
tp138
tp139
s(S'|Where is Belize loc'
p140
S"|GUATEMALA'S Congres"
p141
tp142
(g4
(g8
S'\x00\x00\x00\x00\x00\x005@'
p143
tp144
Rp145
S'here is Belize '
p146
S'held in Belize '
p147
(I1
I566
tp148
(I16
I581
tp149
tp150
s(S'|What is the wingspa'
p151
S'|Stress is believed '
p152
tp153
(g4
(g8
S'\x00\x00\x00\x00\x00\x007@'
p154
tp155
Rp156
S' |the| |wingsp|an||| |of a| condor'
p157
S' other tran|splanted Andean condor'
p158
(I7
I191
tp159
(I32
I224
tp160
tp161
s(S'|What was the name o'
p162
S'| "I hope you don\'t '
p163
tp164
(g4
(g8
S'\x00\x00\x00\x00\x00\x00;@'
p165
tp166
Rp167
S'of the first Russi|an as'
p168
S'ok the first American |s'
p169
(I18
I1239
tp170
(I41
I1262
tp171
tp172
s(S'|What is the wingspa'
p173
S'|The first egg produ'
p174
tp175
(g4
(g8
S'\x00\x00\x00\x00\x00\x00=@'
p176
tp177
Rp178
S' th||e|| wingspan of a'
p179
S' |have a wingspan of a'
p180
(I7
I1269
tp181
(I25
I1290
tp182
tp183
s(S'|Where is Belize loc'
p184
S'|Prime Minister Manu'
p185
tp186
(g4
(g8
S'\x00\x00\x00\x00\x00\x003@'
p187
tp188
Rp189
S'ere is Belize '
p190
S'ery to Belize '
p191
(I2
I624
tp192
(I16
I638
tp193
tp194
s(S'|How old is the sun?'
p195
S'|Nevertheless ,  "Th'
p196
tp197
(g4
(g8
S'\x00\x00\x00\x00\x00\x00*@'
p198
tp199
Rp200
S' is the '
p201
S' in the '
p202
(I7
I624
tp203
(I15
I632
tp204
tp205
s(S'|What is the wingspa'
p206
S'|Wildlife officials '
p207
tp208
(g4
(g8
S'\x00\x00\x00\x00\x00\x009@'
p209
tp210
Rp211
S' |i||s ||the wingspan| '
p212
S' birds with| wingspans '
p213
(I4
I698
tp214
(I21
I720
tp215
tp216
s(S'|What is the wingspa'
p217
S'|Four young Andean c'
p218
tp219
(g4
(g8
S'\x00\x00\x00\x00\x00\x004@'
p220
tp221
Rp222
S' the wingspan of a condor'
p223
S' the |An|dean||||| condor'
p224
(I7
I287
tp225
(I32
I305
tp226
tp227
s(S'|What was the name o'
p228
S'|Two cosmonauts left'
p229
tp230
(g4
(g8
S'\x00\x00\x00\x00\x00\x00:@'
p231
tp232
Rp233
S't was the name| o|||f the first Russia||n|| astrona|ut|| t||||||||||o do a||| space|walk'
p234
S"t |to the telescope , the |Tass news agency |said at the time .    In today's space walk"
p235
(I3
I698
tp236
(I66
I783
tp237
tp238
s(S'|Where is Belize loc'
p239
S'|MR George Price , p'
p240
tp241
(g4
(g8
S'\x00\x00\x00\x00\x00\x003@'
p242
tp243
Rp244
S'ere is Belize '
p245
S'er| of Belize '
p246
(I2
I30
tp247
(I16
I43
tp248
tp249
s(S'|What is the wingspa'
p250
S'|A tiny , pale aqua '
p251
tp252
(g4
(g8
S'\x00\x00\x00\x00\x00\x00:@'
p253
tp254
Rp255
S' is the win|gspa|n o|f a condor'
p256
S' is the |only California condor'
p257
(I4
I1162
tp258
(I32
I1192
tp259
tp260
s(S'|Where is Belize loc'
p261
S'|BFN     [Text] Yest'
p262
tp263
(g4
(g8
S'\x00\x00\x00\x00\x00\x003@'
p264
tp265
Rp266
S'ere |is Belize lo'
p267
S'er| the Belize Co'
p268
(I2
I672
tp269
(I18
I688
tp270
tp271
s(S'|What is the wingspa'
p272
S"|It's a big bird . A"
p273
tp274
(g4
(g8
S'\x00\x00\x00\x00\x00\x009@'
p275
tp276
Rp277
S'hat| is the wingspan of a '
p278
S'h|ts on the wings||| |, a '
p279
(I1
I216
tp280
(I26
I237
tp281
tp282
s(S'|What was the name o'
p283
S'|A still-unexplained'
p284
tp285
(g4
(g8
S'\x00\x00\x00\x00\x00\x00>@'
p286
tp287
Rp288
S' the first Russian as'
p289
S' the first mission |s'
p290
(I20
I3407
tp291
(I41
I3427
tp292
tp293
s(S'|Where is Belize loc'
p294
S'|BFN   <f p= "106 ">'
p295
tp296
(g4
(g8
S'\x00\x00\x00\x00\x00\x002@'
p297
tp298
Rp299
S' Belize loca'
p300
S' Belize toda'
p301
(I8
I93
tp302
(I20
I105
tp303
tp304
s(S'|How old is the sun?'
p305
S'|The other new subsi'
p306
tp307
(g4
(g8
S'\x00\x00\x00\x00\x00\x00,@'
p308
tp309
Rp310
S'ld is the sun'
p311
S'll be the |un'
p312
(I5
I266
tp313
(I18
I278
tp314
tp315
s(S'|What is the wingspa'
p316
S'|A hungry bundle of '
p317
tp318
(g4
(g8
S'\x00\x00\x00\x00\x00\x00=@'
p319
tp320
Rp321
S'hat is the wingspan of |a co'
p322
S'ha|||s ||a wingspan of up to'
p323
(I1
I3113
tp324
(I28
I3136
tp325
tp326
s(S'|Where is Belize loc'
p327
S'|PORING OVER the pag'
p328
tp329
(g4
(g8
S'\x00\x00\x00\x00\x00\x005@'
p330
tp331
Rp332
S'r|e| is Belize '
p333
S'rced in Belize '
p334
(I3
I2818
tp335
(I16
I2833
tp336
tp337
s(S'|Where is Belize loc'
p338
S'|BFN     [Text] Pres'
p339
tp340
(g4
(g8
S'\x00\x00\x00\x00\x00\x002@'
p341
tp342
Rp343
S' is Belize||| located'
p344
S' in Pe||ten , located'
p345
(I5
I1417
tp346
(I23
I1436
tp347
tp348
s(S'|What was the name o'
p349
S'|Chunks of shrapnel '
p350
tp351
(g4
(g8
S'\x00\x00\x00\x00\x00\x80A@'
p352
tp353
Rp354
S't was the |name of the |first Rus|sian astronaut| to do |a'
p355
S't was ||a flake of the pai|nt |used on |||rockets |and| pa'
p356
(I3
I3121
tp357
(I56
I3170
tp358
tp359
s(S'|Where is Belize loc'
p360
S'|The British governm'
p361
tp362
(g4
(g8
S'\x00\x00\x00\x00\x00\x007@'
p363
tp364
Rp365
S'e| is Belize lo|c||ate'
p366
S'ed in Belize to counte'
p367
(I4
I526
tp368
(I22
I548
tp369
tp370
s(S'|What was the name o'
p371
S'|Up to 10 spacewalks'
p372
tp373
(g4
(g8
S'\x00\x00\x00\x00\x00\x80E@'
p374
tp375
Rp376
S'hat ||||was the name of |the first Russian astronaut| to| do a'
p377
S'hat much of the time of at|| least ||||two astronauts |on bo|a'
p378
(I1
I1305
tp379
(I56
I1359
tp380
tp381
s(S'|How old is the sun?'
p382
S'|Matsushita Electric'
p383
tp384
(g4
(g8
S'\x00\x00\x00\x00\x00\x00.@'
p385
tp386
Rp387
S'ow |old is the '
p388
S'on sale in the '
p389
(I1
I1582
tp390
(I15
I1597
tp391
tp392
s(S'|Where is Belize loc'
p393
S'|CONSERVATION and to'
p394
tp395
(g4
(g8
S'\x00\x00\x00\x00\x00\x003@'
p396
tp397
Rp398
S' is Belize '
p399
S' in Belize '
p400
(I5
I54
tp401
(I16
I65
tp402
tp403
s(S'|How old is the sun?'
p404
S'|The Ventura agreeme'
p405
tp406
(g4
(g8
S'\x00\x00\x00\x00\x00\x00(@'
p407
tp408
Rp409
S'ow ||old is the |s'
p410
S'o| broad|en the us'
p411
(I1
I59
tp412
(I16
I75
tp413
tp414
s(S'|Where is Belize loc'
p415
S'|THE opposition in B'
p416
tp417
(g4
(g8
S'\x00\x00\x00\x00\x00\x006@'
p418
tp419
Rp420
S'ere is Belize '
p421
S'ers in Belize '
p422
(I2
I647
tp423
(I16
I661
tp424
tp425
s(S'|What is the wingspa'
p426
S'|<p> An egg laid Sun'
p427
tp428
(g4
(g8
S'\x00\x00\x00\x00\x00\x00;@'
p429
tp430
Rp431
S'at| is the wingspa||n|| |of a condor'
p432
S'ate in the ||||season , so|me condor'
p433
(I2
I1446
tp434
(I32
I1477
tp435
tp436
s(S'|Where is Belize loc'
p437
S'|Belize says neighbo'
p438
tp439
(g4
(g8
S'\x00\x00\x00\x00\x00\x005@'
p440
tp441
Rp442
S'e| is Belize lo'
p443
S'ed in Belize to'
p444
(I4
I606
tp445
(I18
I621
tp446
tp447
s(S'|What is the wingspa'
p448
S'|Removing the egg fr'
p449
tp450
(g4
(g8
S'\x00\x00\x00\x00\x00\x00:@'
p451
tp452
Rp453
S' the wingspan of a condor'
p454
S' the wi||||ld |, a condor'
p455
(I7
I118
tp456
(I32
I138
tp457
tp458
s(S'|Where is Belize loc'
p459
S"|BELIZE'S new govern"
p460
tp461
(g4
(g8
S'\x00\x00\x00\x00\x00\x007@'
p462
tp463
Rp464
S'ere| is Belize |locate'
p465
S'ered by Belize , Guate'
p466
(I2
I1276
tp467
(I22
I1298
tp468
tp469
s(S'|How old is the sun?'
p470
S'|The upstart company'
p471
tp472
(g4
(g8
S'\x00\x00\x00\x00\x00\x000@'
p473
tp474
Rp475
S' |old |i||s the s'
p476
S' four times the s'
p477
(I3
I2659
tp478
(I16
I2676
tp479
tp480
s(S'|How old is the sun?'
p481
S'|COMPUTER workstatio'
p482
tp483
(g4
(g8
S'\x00\x00\x00\x00\x00\x000@'
p484
tp485
Rp486
S' is the '
p487
S' is the '
p488
(I7
I1957
tp489
(I15
I1965
tp490
tp491
s(S'|What was the name o'
p492
S'|The Gamma Ray Obser'
p493
tp494
(g4
(g8
S'\x00\x00\x00\x00\x00\x00<@'
p495
tp496
Rp497
S't wa|s the |name of the first|| Russia||n astronaut| '
p498
S't have t|o leave||| the shuttle ||today , astronauts '
p499
(I3
I835
tp500
(I49
I882
tp501
tp502
s(S'|What is the wingspa'
p503
S'|One zoo-hatched And'
p504
tp505
(g4
(g8
S'\x00\x00\x00\x00\x00\x004@'
p506
tp507
Rp508
S' the wingspan of a condor'
p509
S' the |An|dean||||| condor'
p510
(I7
I1188
tp511
(I32
I1206
tp512
tp513
s(S'|What was the name o'
p514
S'|The solar panels on'
p515
tp516
(g4
(g8
S'\x00\x00\x00\x00\x00\x80A@'
p517
tp518
Rp519
S' astronau||||t||||||||| to ||do a spacewalk'
p520
S' astronauts standing by to take a spacewalk'
p521
(I38
I265
tp522
(I66
I308
tp523
tp524
s(S'|What is the wingspa'
p525
S'|Four Andean condors'
p526
tp527
(g4
(g8
S'\x00\x00\x00\x00\x00\x009@'
p528
tp529
Rp530
S'at|| |is th|e wingspan '
p531
S'ater wi||th a wingspan '
p532
(I2
I512
tp533
(I21
I533
tp534
tp535
s(S'|What is the wingspa'
p536
S'|One of four Andean '
p537
tp538
(g4
(g8
S'\x00\x00\x00\x00\x00\x003@'
p539
tp540
Rp541
S'at||| is the wingspa|n o|f a condor'
p542
S'ative to the |||||California condor'
p543
(I2
I788
tp544
(I32
I818
tp545
tp546
s(S'|Where is Belize loc'
p547
S'|The first of a stri'
p548
tp549
(g4
(g8
S'\x00\x00\x00\x00\x00\x003@'
p550
tp551
Rp552
S'ere is Belize '
p553
S'er| of Belize '
p554
(I2
I720
tp555
(I16
I733
tp556
tp557
s(S'|What was the name o'
p558
S'|A new space race is'
p559
tp560
(g4
(g8
S'\x00\x00\x00\x00\x00\x00B@'
p561
tp562
Rp563
S'an| astronaut ||||||to do a||||| spacewalk'
p564
S'and astronaut Spring , in a 1985 spacewalk'
p565
(I36
I5601
tp566
(I66
I5643
tp567
tp568
s(S'|What was the name o'
p569
S'|Two cosmonauts whos'
p570
tp571
(g4
(g8
S'\x00\x00\x00\x00\x00\x00B@'
p572
tp573
Rp574
S'hat was the name| of the first Russia|n|| |astronaut t'
p575
S'hat was trumpeted as the first ||||manned mission in t'
p576
(I1
I956
tp577
(I50
I1006
tp578
tp579
s(S'|What was the name o'
p580
S"|In ``hush-hush'' su"
p581
tp582
(g4
(g8
S'\x00\x00\x00\x00\x00\x00<@'
p583
tp584
Rp585
S' astronaut| ||to ||do a spacewal'
p586
S' astronauts will test a spec|ial'
p587
(I38
I3641
tp588
(I65
I3672
tp589
tp590
s(S'|What was the name o'
p591
S'|An internal NASA st'
p592
tp593
(g4
(g8
S'\x00\x00\x00\x00\x00\x00<@'
p594
tp595
Rp596
S' the name of the first Russian |astronau|t to d'
p597
S' th|||a|t if the si||t||uation cont|in|ues to d'
p598
(I8
I1432
tp599
(I53
I1469
tp600
tp601
s(S'|What was the name o'
p602
S"|Discovery's astrona"
p603
tp604
(g4
(g8
S'\x00\x00\x00\x00\x00\x00G@'
p605
tp606
Rp607
S' the ||name |of the fir|st Russian astronaut |to|||| ||||do a spacewalk'
p608
S' the repair was |performed ||by an astronaut who was taking a spacewalk'
p609
(I8
I1228
tp610
(I66
I1296
tp611
tp612
s(S'|How old is the sun?'
p613
S'|Sun is fortunate Mr'
p614
tp615
(g4
(g8
S'\x00\x00\x00\x00\x00\x003@'
p616
tp617
Rp618
S' |old |is the '
p619
S' told him the '
p620
(I3
I4038
tp621
(I15
I4052
tp622
tp623
s(S'|How old is the sun?'
p624
S"|Lockheed Corp .'s C"
p625
tp626
(g4
(g8
S'\x00\x00\x00\x00\x00\x00.@'
p627
tp628
Rp629
S' old i|s the su'
p630
S' o|f its two su'
p631
(I3
I794
tp632
(I17
I808
tp633
tp634
s(S'|How old is the sun?'
p635
S'|If it succeeds , th'
p636
tp637
(g4
(g8
S'\x00\x00\x00\x00\x00\x000@'
p638
tp639
Rp640
S' is the '
p641
S' is the '
p642
(I7
I1217
tp643
(I15
I1225
tp644
tp645
s(S'|What is the wingspa'
p646
S'|An egg laid in capt'
p647
tp648
(g4
(g8
S'\x00\x00\x00\x00\x00\x004@'
p649
tp650
Rp651
S' the wingspan of ||a| condor'
p652
S" the |||||park's lead condor"
p653
(I7
I196
tp654
(I32
I219
tp655
tp656
s(S'|What is the wingspa'
p657
S'| "Next year we\'re h'
p658
tp659
(g4
(g8
S'\x00\x00\x00\x00\x00\x004@'
p660
tp661
Rp662
S' the wi||||ngspan of|||| ||||a condor'
p663
S' the wildernes||s of the Sespe Condor'
p664
(I7
I1358
tp665
(I32
I1393
tp666
tp667
s(S'|What was the name o'
p668
S'|The sky was cloudy '
p669
tp670
(g4
(g8
S'\x00\x00\x00\x00\x00\x00;@'
p671
tp672
Rp673
S's the |||name of the '
p674
S's the release of the '
p675
(I7
I951
tp676
(I25
I972
tp677
tp678
s(S'|How old is the sun?'
p679
S'|Price cuts on older'
p680
tp681
(g4
(g8
S'\x00\x00\x00\x00\x00\x00.@'
p682
tp683
Rp684
S'ow |old is the '
p685
S'o| follows the '
p686
(I1
I462
tp687
(I15
I476
tp688
tp689
s(S'|What was the name o'
p690
S'|Five astronauts boa'
p691
tp692
(g4
(g8
S'\x00\x00\x00\x00\x00\x00>@'
p693
tp694
Rp695
S't| wa|s th||e name| o|||||||f the first Russian '
p696
S'th pads |have |been occupied; the first was i|n '
p697
(I3
I1508
tp698
(I39
I1553
tp699
tp700
s(S'|What is the wingspa'
p701
S'|Condor keepers hobb'
p702
tp703
(g4
(g8
S'\x00\x00\x00\x00\x00\x007@'
p704
tp705
Rp706
S'is|| the |||wingspa|n o|f a condor'
p707
S'ised the know|n| California condor'
p708
(I5
I1974
tp709
(I32
I2006
tp710
tp711
s(S'|Where is Belize loc'
p712
S'|BELIZE holds a gene'
p713
tp714
(g4
(g8
S'\x00\x00\x00\x00\x00\x001@'
p715
tp716
Rp717
S're is Belize '
p718
S'r| to Belize '
p719
(I3
I645
tp720
(I16
I657
tp721
tp722
s(S'|How old is the sun?'
p723
S'|Apollo Computer Inc'
p724
tp725
(g4
(g8
S'\x00\x00\x00\x00\x00\x000@'
p726
tp727
Rp728
S'o|l|d |is the '
p729
S'ollo  "is the '
p730
(I4
I667
tp731
(I15
I681
tp732
tp733
s(S'|What is the wingspa'
p734
S'|<p> Zookeepers kept'
p735
tp736
(g4
(g8
S'\x00\x00\x00\x00\x00\x00>@'
p737
tp738
Rp739
S' is the wingspan ||of a condor'
p740
S' is the fi|rs||t time a condor'
p741
(I4
I750
tp742
(I32
I777
tp743
tp744
s(S'|How old is the sun?'
p745
S'|Analysts said Apple'
p746
tp747
(g4
(g8
S'\x00\x00\x00\x00\x00\x001@'
p748
tp749
Rp750
S'd is the s'
p751
S'd in the s'
p752
(I6
I1112
tp753
(I16
I1122
tp754
tp755
s(S'|How old is the sun?'
p756
S'| "This makes it dif'
p757
tp758
(g4
(g8
S'\x00\x00\x00\x00\x00\x00.@'
p759
tp760
Rp761
S' |old|| is||| the '
p762
S' to|day is on the '
p763
(I3
I788
tp764
(I15
I805
tp765
tp766
s(S'|How old is the sun?'
p767
S'|A Sun spokeswoman a'
p768
tp769
(g4
(g8
S'\x00\x00\x00\x00\x00\x00*@'
p770
tp771
Rp772
S' is the '
p773
S' as the '
p774
(I7
I2006
tp775
(I15
I2014
tp776
tp777
s(S'|What was the name o'
p778
S'|Astronaut Donald E '
p779
tp780
(g4
(g8
S'\x00\x00\x00\x00\x00\x00=@'
p781
tp782
Rp783
S'an astronaut to| do ||a s'
p784
S'an astronaut for 11 years'
p785
(I36
I203
tp786
(I58
I228
tp787
tp788
s(S'|Where is Belize loc'
p789
S'|BFN     [Text] Afte'
p790
tp791
(g4
(g8
S'\x00\x00\x00\x00\x00\x001@'
p792
tp793
Rp794
S'e| is Belize '
p795
S'ed to Belize '
p796
(I4
I1670
tp797
(I16
I1683
tp798
tp799
s(S'|What was the name o'
p800
S"|Czechoslovakia's tr"
p801
tp802
(g4
(g8
S'\x00\x00\x00\x00\x00\x00F@'
p803
tp804
Rp805
S' |of the |firs|||t Rus|sian astronaut| to||| |||do|| a spacewalk'
p806
S' to| the telescope ||so two astronauts could perform a spacewalk'
p807
(I17
I3320
tp808
(I66
I3381
tp809
tp810
s(S'|Where is Belize loc'
p811
S'|BFN     [Excerpt] G'
p812
tp813
(g4
(g8
S'\x00\x00\x00\x00\x00\x002@'
p814
tp815
Rp816
S'e is |Belize lo'
p817
S'e || "Belize Co'
p818
(I4
I1007
tp819
(I18
I1020
tp820
tp821
s(S'|What was the name o'
p822
S'|Astronauts Jerry L '
p823
tp824
(g4
(g8
S'\x00\x00\x00\x00\x00\x00:@'
p825
tp826
Rp827
S' was the |name o|f the first Russian astronaut to'
p828
S' was ||a pla|tform th|||||at ||||the astronaut ho'
p829
(I4
I1089
tp830
(I51
I1126
tp831
tp832
s(S'|What is the wingspa'
p833
S'|A California condor'
p834
tp835
(g4
(g8
S'\x00\x00\x00\x00\x00\x005@'
p836
tp837
Rp838
S' the w||ings|pa|n o|f a condor'
p839
S" the world's California condor"
p840
(I7
I1344
tp841
(I32
I1374
tp842
tp843
s(S'|What was the name o'
p844
S'| "If we can\'t , the'
p845
tp846
(g4
(g8
S'\x00\x00\x00\x00\x00\x80D@'
p847
tp848
Rp849
S' was the |name of the firs||||||||t ||Russia|n astronaut| '
p850
S" |at the en||d of the mission .;    Columbia's astronauts "
p851
(I4
I847
tp852
(I49
I902
tp853
tp854
s(S'|What is the wingspa'
p855
S'|<p> Three Californi'
p856
tp857
(g4
(g8
S'\x00\x00\x00\x00\x00\x004@'
p858
tp859
Rp860
S'pa|n of a condor'
p861
S'pair of|| condor'
p862
(I17
I1046
tp863
(I32
I1060
tp864
tp865
s(S'|What was the name o'
p866
S'|Navy Capt . Dick Ri'
p867
tp868
(g4
(g8
S'\x00\x00\x00\x00\x00\x00=@'
p869
tp870
Rp871
S' w|as the |na|me| of th|||||e| |first|| Russian astronaut '
p872
S' when |he learned he |had been selected ||as an astronaut '
p873
(I4
I1501
tp874
(I49
I1555
tp875
tp876
s(S'|What is the wingspa'
p877
S'|A fist-sized bundle'
p878
tp879
(g4
(g8
S'\x00\x00\x00\x00\x00\x00=@'
p880
tp881
Rp882
S'hat is the wingspan of |a co'
p883
S'ha|||s ||a wingspan of up to'
p884
(I1
I1758
tp885
(I28
I1781
tp886
tp887
s(S'|What is the wingspa'
p888
S'|A decision on the h'
p889
tp890
(g4
(g8
S'\x00\x00\x00\x00\x00\x006@'
p891
tp892
Rp893
S'hat is the|| wing||s|pa'
p894
S'h|t |, their wings sepa'
p895
(I1
I3108
tp896
(I19
I3129
tp897
tp898
s(S'|Where is Belize loc'
p899
S'|BFN     [Text] The '
p900
tp901
(g4
(g8
S'\x00\x00\x00\x00\x00\x004@'
p902
tp903
Rp904
S'er|||e |i|s Belize '
p905
S'erence with Belize '
p906
(I2
I815
tp907
(I16
I834
tp908
tp909
s(S'|How old is the sun?'
p910
S'|The software is par'
p911
tp912
(g4
(g8
S'\x00\x00\x00\x00\x00\x00*@'
p913
tp914
Rp915
S' is the '
p916
S' in the '
p917
(I7
I983
tp918
(I15
I991
tp919
tp920
s(S'|How old is the sun?'
p921
S'|Hewlett-Packard , S'
p922
tp923
(g4
(g8
S'\x00\x00\x00\x00\x00\x00*@'
p924
tp925
Rp926
S' |old is ||the |s'
p927
S' hold as much| as'
p928
(I3
I1153
tp929
(I16
I1169
tp930
tp931
s(S'|How old is the sun?'
p932
S'|DIGITAL Equipment ('
p933
tp934
(g4
(g8
S'\x00\x00\x00\x00\x00\x00.@'
p935
tp936
Rp937
S' is |the '
p938
S" is 'the "
p939
(I7
I2467
tp940
(I15
I2476
tp941
tp942
s(S'|What was the name o'
p943
S'| "Very nice braking'
p944
tp945
(g4
(g8
S'\x00\x00\x00\x00\x00\x00D@'
p946
tp947
Rp948
S' the |||||na||||me of the| first Russian |a||||st|r||onaut to do a||| space|walk'
p949
S" the antenna loose |, then ||got |||||an early start on||| to|d||ay's space-walk"
p950
(I8
I815
tp951
(I66
I881
tp952
tp953
s(S'|What is the wingspa'
p954
S'|Love is in the air '
p955
tp956
(g4
(g8
S'\x00\x00\x00\x00\x00\x008@'
p957
tp958
Rp959
S' wingspan|||||| |of ||||a| condor'
p960
S' wingspans .    The Andean condor'
p961
(I11
I2679
tp962
(I32
I2712
tp963
tp964
s(S'|How old is the sun?'
p965
S'|SUN Microsystems ai'
p966
tp967
(g4
(g8
S'\x00\x00\x00\x00\x00\x00.@'
p968
tp969
Rp970
S'd is the '
p971
S'd in the '
p972
(I6
I667
tp973
(I15
I676
tp974
tp975
s(S'|Where is Belize loc'
p976
S'|Farce , rather than'
p977
tp978
(g4
(g8
S'\x00\x00\x00\x00\x00\x000@'
p979
tp980
Rp981
S' Belize '
p982
S' Belize '
p983
(I8
I619
tp984
(I16
I627
tp985
tp986
s(S'|How old is the sun?'
p987
S'|Silicon Graphics Co'
p988
tp989
(g4
(g8
S'\x00\x00\x00\x00\x00\x00,@'
p990
tp991
Rp992
S' |ol|d i||||s||| the s'
p993
S' color images on the s'
p994
(I3
I475
tp995
(I16
I497
tp996
tp997
s(S'|How old is the sun?'
p998
S'|In early June , Sun'
p999
tp1000
(g4
(g8
S'\x00\x00\x00\x00\x00\x001@'
p1001
tp1002
Rp1003
S'w| |old is the s'
p1004
S'we told||| the s'
p1005
(I2
I2451
tp1006
(I16
I2464
tp1007
tp1008
s(S'|How old is the sun?'
p1009
S'|Revenue for the fou'
p1010
tp1011
(g4
(g8
S'\x00\x00\x00\x00\x00\x00,@'
p1012
tp1013
Rp1014
S' |old i|s '
p1015
S' sold its '
p1016
(I3
I653
tp1017
(I11
I663
tp1018
tp1019
s(S'|What is the wingspa'
p1020
S'| "You could tell ou'
p1021
tp1022
(g4
(g8
S'\x00\x00\x00\x00\x00\x004@'
p1023
tp1024
Rp1025
S' wingspan '
p1026
S' wingspan '
p1027
(I11
I1406
tp1028
(I21
I1416
tp1029
tp1030
s(S'|What was the name o'
p1031
S'|The long-delayed Co'
p1032
tp1033
(g4
(g8
S'\x00\x00\x00\x00\x00\x80@@'
p1034
tp1035
Rp1036
S' was ||the name of th||e |||fi|rst Russi||||an||||| |||ast|||r|onaut to |do |a space'
p1037
S' |a| vet|e|ra|n of three previous| missions and the oldest person||| to fly in space'
p1038
(I4
I62
tp1039
(I62
I137
tp1040
tp1041
s(S'|What is the wingspa'
p1042
S'|The first of two he'
p1043
tp1044
(g4
(g8
S'\x00\x00\x00\x00\x00\x004@'
p1045
tp1046
Rp1047
S' the wingspa|n of ||a| |c'
p1048
S' the vang|uard of what sc'
p1049
(I7
I1139
tp1050
(I27
I1163
tp1051
tp1052
s(S'|How old is the sun?'
p1053
S'|IBM unveiled a line'
p1054
tp1055
(g4
(g8
S'\x00\x00\x00\x00\x00\x001@'
p1056
tp1057
Rp1058
S' is the su'
p1059
S' in the su'
p1060
(I7
I2407
tp1061
(I17
I2417
tp1062
tp1063
s(S'|How old is the sun?'
p1064
S'|Compaq Computer Cor'
p1065
tp1066
(g4
(g8
S'\x00\x00\x00\x00\x00\x000@'
p1067
tp1068
Rp1069
S' is the '
p1070
S' is the '
p1071
(I7
I1351
tp1072
(I15
I1359
tp1073
tp1074
s(S'|How old is the sun?'
p1075
S'|The competition amo'
p1076
tp1077
(g4
(g8
S'\x00\x00\x00\x00\x00\x002@'
p1078
tp1079
Rp1080
S'd is the '
p1081
S'd is the '
p1082
(I6
I2883
tp1083
(I15
I2892
tp1084
tp1085
s(S'|Where is Belize loc'
p1086
S"|<p> It's not exactl"
p1087
tp1088
(g4
(g8
S'\x00\x00\x00\x00\x00\x002@'
p1089
tp1090
Rp1091
S'ere |is Belize '
p1092
S'er| the Belize '
p1093
(I2
I888
tp1094
(I16
I902
tp1095
tp1096
s(S'|Where is Belize loc'
p1097
S"|CENTRAL AMERICA's d"
p1098
tp1099
(g4
(g8
S'\x00\x00\x00\x00\x00\x007@'
p1100
tp1101
Rp1102
S're is Belize '
p1103
S're in Belize '
p1104
(I3
I961
tp1105
(I16
I974
tp1106
tp1107
s(S'|What was the name o'
p1108
S'|The Discovery astro'
p1109
tp1110
(g4
(g8
S'\x00\x00\x00\x00\x00\x009@'
p1111
tp1112
Rp1113
S' astronaut| ||to do a space|walk'
p1114
S' astronauts alread||y |have walk'
p1115
(I38
I1977
tp1116
(I66
I2006
tp1117
tp1118
s(S'|What was the name o'
p1119
S'|US astronauts succe'
p1120
tp1121
(g4
(g8
S'\x00\x00\x00\x00\x00\x00:@'
p1122
tp1123
Rp1124
S' astronaut| |to do '
p1125
S' astronauts can do '
p1126
(I38
I238
tp1127
(I55
I257
tp1128
tp1129
s(S'|Where is Belize loc'
p1130
S'|THE award this mont'
p1131
tp1132
(g4
(g8
S'\x00\x00\x00\x00\x00\x003@'
p1133
tp1134
Rp1135
S'is| Belize '
p1136
S'ise Belize '
p1137
(I6
I1457
tp1138
(I16
I1468
tp1139
tp1140
s(S'|What is the wingspa'
p1141
S'|The release of Hoin'
p1142
tp1143
(g4
(g8
S'\x00\x00\x00\x00\x00\x003@'
p1144
tp1145
Rp1146
S's| the wingspa|n o|f a condor'
p1147
S'se the |||||California condor'
p1148
(I6
I789
tp1149
(I32
I813
tp1150
tp1151
s(S'|What was the name o'
p1152
S'|A new NASA report c'
p1153
tp1154
(g4
(g8
S'\x00\x00\x00\x00\x00\x00>@'
p1155
tp1156
Rp1157
S' of the ||fir|||st|| |Rus|||sia|||n| astronaut| '
p1158
S' of the solar system by spacewalking astronauts '
p1159
(I17
I466
tp1160
(I49
I514
tp1161
tp1162
s(S'|What is the wingspa'
p1163
S'|A Boy Scout who cra'
p1164
tp1165
(g4
(g8
S'\x00\x00\x00\x00\x00\x008@'
p1166
tp1167
Rp1168
S'ingspan of|| ||a| condor'
p1169
S'ings||| of a real condor'
p1170
(I13
I2584
tp1171
(I32
I2605
tp1172
tp1173
s(S'|Where is Belize loc'
p1174
S'|FOR MORE than 40 ye'
p1175
tp1176
(g4
(g8
S'\x00\x00\x00\x00\x00\x001@'
p1177
tp1178
Rp1179
S' Belize lo'
p1180
S' Belize wo'
p1181
(I8
I412
tp1182
(I18
I422
tp1183
tp1184
s(S'|How old is the sun?'
p1185
S'|Sun Microsystems In'
p1186
tp1187
(g4
(g8
S'\x00\x00\x00\x00\x00\x00.@'
p1188
tp1189
Rp1190
S' |old i|s |the '
p1191
S' sold its line '
p1192
(I3
I41
tp1193
(I15
I56
tp1194
tp1195
s(S'|What was the name o'
p1196
S'| "We\'re extremely p'
p1197
tp1198
(g4
(g8
S'\x00\x00\x00\x00\x00\x00<@'
p1199
tp1200
Rp1201
S' astronaut||||| t|o do|| a space'
p1202
S' astronauts saw the Soviet space'
p1203
(I38
I305
tp1204
(I62
I337
tp1205
tp1206
s(S'|Where is Belize loc'
p1207
S'|THE Guatemalan gove'
p1208
tp1209
(g4
(g8
S'\x00\x00\x00\x00\x00\x000@'
p1210
tp1211
Rp1212
S' Belize '
p1213
S' Belize '
p1214
(I8
I2705
tp1215
(I16
I2713
tp1216
tp1217
s(S'|What was the name o'
p1218
S'|An emergency spacew'
p1219
tp1220
(g4
(g8
S'\x00\x00\x00\x00\x00\x00<@'
p1221
tp1222
Rp1223
S'as the| |name o|||f |the|| first| Russian astronaut| '
p1224
S'as|t|ed in|to orbit June 5 wi||th ||seven astronauts '
p1225
(I6
I381
tp1226
(I49
I427
tp1227
tp1228
s(S'|What is the wingspa'
p1229
S'|A tiny California c'
p1230
tp1231
(g4
(g8
S'\x00\x00\x00\x00\x00\x00=@'
p1232
tp1233
Rp1234
S' |is th|e wing|span of |a co'
p1235
S' wi||th a wing span of up to'
p1236
(I4
I1416
tp1237
(I28
I1442
tp1238
tp1239
s(S'|What is the wingspa'
p1240
S'|After weeks of amor'
p1241
tp1242
(g4
(g8
S'\x00\x00\x00\x00\x00\x003@'
p1243
tp1244
Rp1245
S' wingspan| '
p1246
S' wingspans '
p1247
(I11
I1262
tp1248
(I21
I1273
tp1249
tp1250
s(S'|How old is the sun?'
p1251
S'|Digital Equipment C'
p1252
tp1253
(g4
(g8
S'\x00\x00\x00\x00\x00\x001@'
p1254
tp1255
Rp1256
S'ow o|ld is the s'
p1257
S'owdowns in the s'
p1258
(I1
I3540
tp1259
(I16
I3556
tp1260
tp1261
s(S'|What is the wingspa'
p1262
S'|An excited young An'
p1263
tp1264
(g4
(g8
S'\x00\x00\x00\x00\x00\x007@'
p1265
tp1266
Rp1267
S' the| wingspan| ||of ||a con'
p1268
S' |her wings and took off |on'
p1269
(I7
I38
tp1270
(I29
I64
tp1271
tp1272
s(S'|What was the name o'
p1273
S'|<p> The proposed U '
p1274
tp1275
(g4
(g8
S'\x00\x00\x00\x00\x00\x009@'
p1276
tp1277
Rp1278
S's the nam|e| of ||the||||| f|||||||irst Russian astronaut| '
p1279
S's|tic number of spacewalks for repairs| |before astronauts '
p1280
(I7
I102
tp1281
(I49
I158
tp1282
tp1283
s(S'|What was the name o'
p1284
S"|Mission Control's B"
p1285
tp1286
(g4
(g8
S'\x00\x00\x00\x00\x00\x00?@'
p1287
tp1288
Rp1289
S'me of the fi|rs|||t Russi||||||||a|n astronaut '
p1290
S'me of the views are amazing , " said astronaut '
p1291
(I15
I2580
tp1292
(I49
I2627
tp1293
tp1294
s(S'|How old is the sun?'
p1295
S'|Sun said its net in'
p1296
tp1297
(g4
(g8
S'\x00\x00\x00\x00\x00\x00,@'
p1298
tp1299
Rp1300
S' is the su'
p1301
S' in the qu'
p1302
(I7
I422
tp1303
(I17
I432
tp1304
tp1305
s(S'|What was the name o'
p1306
S'|Air Force Lt . Col '
p1307
tp1308
(g4
(g8
S'\x00\x00\x00\x00\x00\x80A@'
p1309
tp1310
Rp1311
S' astronaut||||| to| ||||||d||o |a spacewalk'
p1312
S' astronauts had not planned to go spacewalk'
p1313
(I38
I1607
tp1314
(I66
I1650
tp1315
tp1316
s(S'|Where is Belize loc'
p1317
S'|BELIZE faces an arr'
p1318
tp1319
(g4
(g8
S'\x00\x00\x00\x00\x00\x006@'
p1320
tp1321
Rp1322
S' is Belize '
p1323
S' is Belize '
p1324
(I5
I191
tp1325
(I16
I202
tp1326
tp1327
s(S'|What is the wingspa'
p1328
S'|<p> A California co'
p1329
tp1330
(g4
(g8
S'\x00\x00\x00\x00\x00\x008@'
p1331
tp1332
Rp1333
S'at is| ||t|he wing||s|pa|n of a c'
p1334
S'at|est hatch|||ing is part of a c'
p1335
(I2
I524
tp1336
(I27
I553
tp1337
tp1338
s(S'|How old is the sun?'
p1339
S'| "This is the first'
p1340
tp1341
(g4
(g8
S'\x00\x00\x00\x00\x00\x000@'
p1342
tp1343
Rp1344
S' is the '
p1345
S' is the '
p1346
(I7
I6
tp1347
(I15
I14
tp1348
tp1349
s(S'|What was the name o'
p1350
S'|Ground controllers '
p1351
tp1352
(g4
(g8
S'\x00\x00\x00\x00\x00\x00F@'
p1353
tp1354
Rp1355
S' |of the |firs|||t Rus|sian astronaut| to||| |||do|| a spacewalk'
p1356
S' to| the telescope ||so two astronauts could perform a spacewalk'
p1357
(I17
I3905
tp1358
(I66
I3966
tp1359
tp1360
s(S'|How old is the sun?'
p1361
S'|But now a new breed'
p1362
tp1363
(g4
(g8
S'\x00\x00\x00\x00\x00\x00*@'
p1364
tp1365
Rp1366
S' is th|e'
p1367
S' is thre'
p1368
(I7
I33
tp1369
(I14
I41
tp1370
tp1371
s(S'|What is the wingspa'
p1372
S'|<p> The laying of a'
p1373
tp1374
(g4
(g8
S'\x00\x00\x00\x00\x00\x009@'
p1375
tp1376
Rp1377
S' the ||||wing|spa||n|| ||||of a condor'
p1378
S' the breeding season , citing a condor'
p1379
(I7
I2534
tp1380
(I32
I2572
tp1381
tp1382
s(S'|What was the name o'
p1383
S'| "Congratulations o'
p1384
tp1385
(g4
(g8
S'\x00\x00\x00\x00\x00\x00B@'
p1386
tp1387
Rp1388
S' was the name of the first Russi||||||an astronaut '
p1389
S' was ||fin||e on the right |||side .;    Astronaut '
p1390
(I4
I819
tp1391
(I49
I863
tp1392
tp1393
s(S'|What is the wingspa'
p1394
S'|The first Californi'
p1395
tp1396
(g4
(g8
S'\x00\x00\x00\x00\x00\x00>@'
p1397
tp1398
Rp1399
S't i|s the ||wingspan of a c'
p1400
S'tains the makings||| of a c'
p1401
(I3
I79
tp1402
(I27
I103
tp1403
tp1404
s(S'|How old is the sun?'
p1405
S"|Sun has the world's"
p1406
tp1407
(g4
(g8
S'\x00\x00\x00\x00\x00\x000@'
p1408
tp1409
Rp1410
S' is the '
p1411
S' is the '
p1412
(I7
I532
tp1413
(I15
I540
tp1414
tp1415
s(S'|How old is the sun?'
p1416
S"|Sun's new decree , "
p1417
tp1418
(g4
(g8
S'\x00\x00\x00\x00\x00\x00*@'
p1419
tp1420
Rp1421
S' is the '
p1422
S' as the '
p1423
(I7
I542
tp1424
(I15
I550
tp1425
tp1426
s(S'|What is the wingspa'
p1427
S'|<p> The California '
p1428
tp1429
(g4
(g8
S'\x00\x00\x00\x00\x00\x005@'
p1430
tp1431
Rp1432
S' the wings|||pa|n o|f a condor'
p1433
S' the fi|rst  California condor'
p1434
(I7
I1291
tp1435
(I32
I1320
tp1436
tp1437
s(S'|What is the wingspa'
p1438
S'|<p> Biologists tryi'
p1439
tp1440
(g4
(g8
S'\x00\x00\x00\x00\x00\x003@'
p1441
tp1442
Rp1443
S' wingspan| '
p1444
S' wingspans '
p1445
(I11
I318
tp1446
(I21
I329
tp1447
tp1448
s(S'|What is the wingspa'
p1449
S'|Molloko , the Calif'
p1450
tp1451
(g4
(g8
S'\x00\x00\x00\x00\x00\x004@'
p1452
tp1453
Rp1454
S'is|| the wingspa|n o|f a condor'
p1455
S'ised the |||||California condor'
p1456
(I5
I911
tp1457
(I32
I937
tp1458
tp1459
s(S'|What was the name o'
p1460
S'|Here are brief sket'
p1461
tp1462
(g4
(g8
S'\x00\x00\x00\x00\x00\x00<@'
p1463
tp1464
Rp1465
S' astronaut ||||to ||do |||a spacewa'
p1466
S' astronaut first| flew into space a'
p1467
(I38
I665
tp1468
(I64
I699
tp1469
tp1470
s(S'|What was the name o'
p1471
S'|<p> The Discovery a'
p1472
tp1473
(g4
(g8
S'\x00\x00\x00\x00\x00\x00A@'
p1474
tp1475
Rp1476
S't was the||| |name| ||of |the fir|||st Russian| |astronaut to d|o a spacewalk'
p1477
S't was |being pulled from it|s ||reel . Mission  Contro|||l |ordered spacewalk'
p1478
(I3
I923
tp1479
(I66
I992
tp1480
tp1481
s(S'|Where is Belize loc'
p1482
S'|TWO important devel'
p1483
tp1484
(g4
(g8
S'\x00\x00\x00\x00\x00\x003@'
p1485
tp1486
Rp1487
S' is Belize|| ||locat'
p1488
S" as Belize's rel||at"
p1489
(I5
I1922
tp1490
(I21
I1940
tp1491
tp1492
s(S'|Where is Belize loc'
p1493
S'|MR Manuel Esquivel '
p1494
tp1495
(g4
(g8
S'\x00\x00\x00\x00\x00\x003@'
p1496
tp1497
Rp1498
S'ere is Belize '
p1499
S'er| of Belize '
p1500
(I2
I97
tp1501
(I16
I110
tp1502
tp1503
s(S'|How old is the sun?'
p1504
S'|Both companies see '
p1505
tp1506
(g4
(g8
S'\x00\x00\x00\x00\x00\x000@'
p1507
tp1508
Rp1509
S' is the '
p1510
S' is the '
p1511
(I7
I531
tp1512
(I15
I539
tp1513
tp1514
s(S'|How old is the sun?'
p1515
S'|Computers , except '
p1516
tp1517
(g4
(g8
S'\x00\x00\x00\x00\x00\x000@'
p1518
tp1519
Rp1520
S'l|d is the '
p1521
S'led as the '
p1522
(I5
I1644
tp1523
(I15
I1655
tp1524
tp1525
s(S'|How old is the sun?'
p1526
S"|Sun's machine , exp"
p1527
tp1528
(g4
(g8
S'\x00\x00\x00\x00\x00\x001@'
p1529
tp1530
Rp1531
S' |old is the '
p1532
S' no|w is the '
p1533
(I3
I2615
tp1534
(I15
I2627
tp1535
tp1536
s(S'|How old is the sun?'
p1537
S'|Sun also is expecte'
p1538
tp1539
(g4
(g8
S'\x00\x00\x00\x00\x00\x00.@'
p1540
tp1541
Rp1542
S' is the s'
p1543
S' in the s'
p1544
(I7
I466
tp1545
(I16
I475
tp1546
tp1547
s(S'|What is the wingspa'
p1548
S'|Six Andean condors '
p1549
tp1550
(g4
(g8
S'\x00\x00\x00\x00\x00\x006@'
p1551
tp1552
Rp1553
S'hat is the '
p1554
S'hat is the '
p1555
(I1
I3264
tp1556
(I12
I3275
tp1557
tp1558
s(S'|What was the name o'
p1559
S'|NASA , in a rare mo'
p1560
tp1561
(g4
(g8
S'\x00\x00\x00\x00\x00\x80A@'
p1562
tp1563
Rp1564
S' name| |of the first| Russi|an astron'
p1565
S' named for the ||late American astron'
p1566
(I12
I2807
tp1567
(I45
I2842
tp1568
tp1569
s(S'|What was the name o'
p1570
S'|After seven years o'
p1571
tp1572
(g4
(g8
S'\x00\x00\x00\x00\x00\x00@@'
p1573
tp1574
Rp1575
S' the ||||n|||ame of the fi|||rst Russian|| astronaut| to d'
p1576
S' the second da|y of the five-day mission . NASA wants to d'
p1577
(I8
I4274
tp1578
(I53
I4331
tp1579
tp1580
s(S'|Where is Belize loc'
p1581
S'|Language : <f p= "1'
p1582
tp1583
(g4
(g8
S'\x00\x00\x00\x00\x00\x002@'
p1584
tp1585
Rp1586
S'here |i|s Belize|| lo'
p1587
S'he|s with Belizean so'
p1588
(I1
I1650
tp1589
(I18
I1670
tp1590
tp1591
s(S'|What is the wingspa'
p1592
S'|The hatchings of tw'
p1593
tp1594
(g4
(g8
S'\x00\x00\x00\x00\x00\x00;@'
p1595
tp1596
Rp1597
S' th||e|| wingspan of '
p1598
S' |have a wingspan of '
p1599
(I7
I1176
tp1600
(I24
I1196
tp1601
tp1602
s(S'|What was the name o'
p1603
S'|The 60-foot-long do'
p1604
tp1605
(g4
(g8
S'\x00\x00\x00\x00\x00\x00A@'
p1606
tp1607
Rp1608
S' of the first Russian astronaut| to| do a'
p1609
S' of the|||||| ||seven astronauts |on bo|a'
p1610
(I17
I346
tp1611
(I56
I377
tp1612
tp1613
s(S'|How old is the sun?'
p1614
S'|Says executive vice'
p1615
tp1616
(g4
(g8
S'\x00\x00\x00\x00\x00\x001@'
p1617
tp1618
Rp1619
S' |old is the '
p1620
S' no|w is the '
p1621
(I3
I4563
tp1622
(I15
I4575
tp1623
tp1624
s(S'|What was the name o'
p1625
S'|Installing a donut-'
p1626
tp1627
(g4
(g8
S'\x00\x00\x00\x00\x00\x00>@'
p1628
tp1629
Rp1630
S'hat was the n|ame |o||f the first||||| |Rus|||sia|||n| astronaut| to '
p1631
S"hat |a| ``donut'' could |be |installed by spacewalking astronauts to "
p1632
(I1
I207
tp1633
(I52
I272
tp1634
tp1635
s(S'|What was the name o'
p1636
S'|Bagian had left an '
p1637
tp1638
(g4
(g8
S'\x00\x00\x00\x00\x00\x00D@'
p1639
tp1640
Rp1641
S'hat w|as the name of the first Russian ||ast||ron||au|||t to |do a| '
p1642
S'hat when |we came on th|||i|s| mission tha|t when you get to fly at '
p1643
(I1
I376
tp1644
(I57
I437
tp1645
tp1646
s(S'|What is the wingspa'
p1647
S'|A newborn Californi'
p1648
tp1649
(g4
(g8
S'\x00\x00\x00\x00\x00\x00A@'
p1650
tp1651
Rp1652
S't is the wingsp|an| of|||| |a|| condor'
p1653
S't is the |offspring of the same condor'
p1654
(I3
I1004
tp1655
(I32
I1041
tp1656
tp1657
s(S'|What is the wingspa'
p1658
S'|The Philadelphia Zo'
p1659
tp1660
(g4
(g8
S'\x00\x00\x00\x00\x00\x00=@'
p1661
tp1662
Rp1663
S'hat is the wingspan of |a co'
p1664
S'ha|||s ||a wingspan of up to'
p1665
(I1
I2115
tp1666
(I28
I2138
tp1667
tp1668
s(S'|Where is Belize loc'
p1669
S'|A Guatemalan gunboa'
p1670
tp1671
(g4
(g8
S'\x00\x00\x00\x00\x00\x004@'
p1672
tp1673
Rp1674
S'e| is Belize '
p1675
S'ed in Belize '
p1676
(I4
I1111
tp1677
(I16
I1124
tp1678
tp1679
s(S'|What was the name o'
p1680
S'|<p> The launch of t'
p1681
tp1682
(g4
(g8
S'\x00\x00\x00\x00\x00\x80E@'
p1683
tp1684
Rp1685
S' the ||name of the first Russian|||||| astronaut| '
p1686
S' the course of the||ir|| mission , the astronauts '
p1687
(I8
I2040
tp1688
(I49
I2086
tp1689
tp1690
s(S'|What was the name o'
p1691
S'|NASA launched the s'
p1692
tp1693
(g4
(g8
S'\x00\x00\x00\x00\x00\x80F@'
p1694
tp1695
Rp1696
S' the first Russian astronaut| to ||do a space'
p1697
S' The first ||||non-astronauts go into|| space'
p1698
(I20
I938
tp1699
(I62
I977
tp1700
tp1701
s.